
========================================================================

** ELF Header Information

    File Name: .\STM32H750_App\STM32H750_App.axf

    Machine class: ELFCLASS32 (32-bit)
    Data encoding: ELFDATA2LSB (Little endian)
    Header version: EV_CURRENT (Current version)
    Operating System ABI: none
    ABI Version: 0
    File Type: ET_EXEC (Executable) (2)
    Machine: EM_ARM (ARM)

    Image Entry point: 0x24041299
    Flags: EF_ARM_HASENTRY + EF_ARM_ABI_FLOAT_HARD (0x05000402)

    ARM ELF revision: 5 (ABI version 2)

    Conforms to Hard float procedure-call standard

    Built with
    Component: ARM Compiler 6.16 Tool: armasm [5dfea300]
    Component: ARM Compiler 6.16 Tool: armlink [5dfeaa00]

    Header size: 52 bytes (0x34)
    Program header entry size: 32 bytes (0x20)
    Section header entry size: 40 bytes (0x28)

    Program header entries: 1
    Section header entries: 16

    Program header offset: 266952 (0x000412c8)
    Section header offset: 266984 (0x000412e8)

    Section header string table index: 15

========================================================================

** Program header #0 (PT_LOAD) [PF_X + PF_W + PF_R + PF_ARM_ENTRY]
    Size : 16528 bytes (14584 bytes in file)
    Virtual address: 0x24041000 (Alignment 8)


========================================================================

** Section #1 'ER_IROM1' (SHT_PROGBITS) [SHF_ALLOC + SHF_EXECINSTR]
    Size   : 14568 bytes (alignment 8)
    Address: 0x24041000

    $d.realdata
    RESET
    __Vectors
        0x24041000:    24045090    .P.$    DCD    604262544
        0x24041004:    2404131d    ...$    DCD    604246813
        0x24041008:    24043931    19.$    DCD    604256561
        0x2404100c:    24043801    .8.$    DCD    604256257
        0x24041010:    24043929    )9.$    DCD    604256553
        0x24041014:    24041549    I..$    DCD    604247369
        0x24041018:    24044739    9G.$    DCD    604260153
        0x2404101c:    00000000    ....    DCD    0
        0x24041020:    00000000    ....    DCD    0
        0x24041024:    00000000    ....    DCD    0
        0x24041028:    00000000    ....    DCD    0
        0x2404102c:    24043bb1    .;.$    DCD    604257201
        0x24041030:    24041551    Q..$    DCD    604247377
        0x24041034:    00000000    ....    DCD    0
        0x24041038:    24043969    i9.$    DCD    604256617
        0x2404103c:    24043be9    .;.$    DCD    604257257
        0x24041040:    24041337    7..$    DCD    604246839
        0x24041044:    24041337    7..$    DCD    604246839
        0x24041048:    24041337    7..$    DCD    604246839
        0x2404104c:    24041337    7..$    DCD    604246839
        0x24041050:    24041337    7..$    DCD    604246839
        0x24041054:    24041337    7..$    DCD    604246839
        0x24041058:    24041337    7..$    DCD    604246839
        0x2404105c:    24041337    7..$    DCD    604246839
        0x24041060:    24041337    7..$    DCD    604246839
        0x24041064:    24041337    7..$    DCD    604246839
        0x24041068:    24041337    7..$    DCD    604246839
        0x2404106c:    24041337    7..$    DCD    604246839
        0x24041070:    24041337    7..$    DCD    604246839
        0x24041074:    24041337    7..$    DCD    604246839
        0x24041078:    24041337    7..$    DCD    604246839
        0x2404107c:    24041337    7..$    DCD    604246839
        0x24041080:    24041337    7..$    DCD    604246839
        0x24041084:    24041337    7..$    DCD    604246839
        0x24041088:    24041337    7..$    DCD    604246839
        0x2404108c:    24041337    7..$    DCD    604246839
        0x24041090:    24041337    7..$    DCD    604246839
        0x24041094:    24041337    7..$    DCD    604246839
        0x24041098:    24041337    7..$    DCD    604246839
        0x2404109c:    24041337    7..$    DCD    604246839
        0x240410a0:    24041337    7..$    DCD    604246839
        0x240410a4:    24041337    7..$    DCD    604246839
        0x240410a8:    24041337    7..$    DCD    604246839
        0x240410ac:    24041337    7..$    DCD    604246839
        0x240410b0:    24041337    7..$    DCD    604246839
        0x240410b4:    24041337    7..$    DCD    604246839
        0x240410b8:    24041337    7..$    DCD    604246839
        0x240410bc:    24041337    7..$    DCD    604246839
        0x240410c0:    24041337    7..$    DCD    604246839
        0x240410c4:    24041337    7..$    DCD    604246839
        0x240410c8:    24041337    7..$    DCD    604246839
        0x240410cc:    24041337    7..$    DCD    604246839
        0x240410d0:    24041337    7..$    DCD    604246839
        0x240410d4:    24041337    7..$    DCD    604246839
        0x240410d8:    24041337    7..$    DCD    604246839
        0x240410dc:    24041337    7..$    DCD    604246839
        0x240410e0:    24041337    7..$    DCD    604246839
        0x240410e4:    24041337    7..$    DCD    604246839
        0x240410e8:    00000000    ....    DCD    0
        0x240410ec:    24041337    7..$    DCD    604246839
        0x240410f0:    24041337    7..$    DCD    604246839
        0x240410f4:    24041337    7..$    DCD    604246839
        0x240410f8:    24041337    7..$    DCD    604246839
        0x240410fc:    24041337    7..$    DCD    604246839
        0x24041100:    24041337    7..$    DCD    604246839
        0x24041104:    24041337    7..$    DCD    604246839
        0x24041108:    24041337    7..$    DCD    604246839
        0x2404110c:    24041337    7..$    DCD    604246839
        0x24041110:    24041337    7..$    DCD    604246839
        0x24041114:    24041337    7..$    DCD    604246839
        0x24041118:    24043dc9    .=.$    DCD    604257737
        0x2404111c:    24041337    7..$    DCD    604246839
        0x24041120:    24041337    7..$    DCD    604246839
        0x24041124:    24041337    7..$    DCD    604246839
        0x24041128:    24041337    7..$    DCD    604246839
        0x2404112c:    24041337    7..$    DCD    604246839
        0x24041130:    24041337    7..$    DCD    604246839
        0x24041134:    24041337    7..$    DCD    604246839
        0x24041138:    24041337    7..$    DCD    604246839
        0x2404113c:    24041337    7..$    DCD    604246839
        0x24041140:    00000000    ....    DCD    0
        0x24041144:    00000000    ....    DCD    0
        0x24041148:    00000000    ....    DCD    0
        0x2404114c:    00000000    ....    DCD    0
        0x24041150:    24041337    7..$    DCD    604246839
        0x24041154:    24041337    7..$    DCD    604246839
        0x24041158:    24041337    7..$    DCD    604246839
        0x2404115c:    24041337    7..$    DCD    604246839
        0x24041160:    24041337    7..$    DCD    604246839
        0x24041164:    24041337    7..$    DCD    604246839
        0x24041168:    24041337    7..$    DCD    604246839
        0x2404116c:    24041337    7..$    DCD    604246839
        0x24041170:    24041337    7..$    DCD    604246839
        0x24041174:    24041337    7..$    DCD    604246839
        0x24041178:    24041337    7..$    DCD    604246839
        0x2404117c:    24041337    7..$    DCD    604246839
        0x24041180:    24041337    7..$    DCD    604246839
        0x24041184:    24041337    7..$    DCD    604246839
        0x24041188:    24041337    7..$    DCD    604246839
        0x2404118c:    24041337    7..$    DCD    604246839
        0x24041190:    24041337    7..$    DCD    604246839
        0x24041194:    24041337    7..$    DCD    604246839
        0x24041198:    24041337    7..$    DCD    604246839
        0x2404119c:    24041337    7..$    DCD    604246839
        0x240411a0:    24041337    7..$    DCD    604246839
        0x240411a4:    24041337    7..$    DCD    604246839
        0x240411a8:    24041337    7..$    DCD    604246839
        0x240411ac:    24041337    7..$    DCD    604246839
        0x240411b0:    24041337    7..$    DCD    604246839
        0x240411b4:    24041337    7..$    DCD    604246839
        0x240411b8:    24041337    7..$    DCD    604246839
        0x240411bc:    24041337    7..$    DCD    604246839
        0x240411c0:    24041337    7..$    DCD    604246839
        0x240411c4:    24041337    7..$    DCD    604246839
        0x240411c8:    24041337    7..$    DCD    604246839
        0x240411cc:    24041337    7..$    DCD    604246839
        0x240411d0:    24041337    7..$    DCD    604246839
        0x240411d4:    24041337    7..$    DCD    604246839
        0x240411d8:    24041337    7..$    DCD    604246839
        0x240411dc:    24041337    7..$    DCD    604246839
        0x240411e0:    24041337    7..$    DCD    604246839
        0x240411e4:    24041337    7..$    DCD    604246839
        0x240411e8:    24041337    7..$    DCD    604246839
        0x240411ec:    24041337    7..$    DCD    604246839
        0x240411f0:    24041337    7..$    DCD    604246839
        0x240411f4:    24041337    7..$    DCD    604246839
        0x240411f8:    24041337    7..$    DCD    604246839
        0x240411fc:    24041337    7..$    DCD    604246839
        0x24041200:    24041337    7..$    DCD    604246839
        0x24041204:    24041337    7..$    DCD    604246839
        0x24041208:    24041337    7..$    DCD    604246839
        0x2404120c:    24041337    7..$    DCD    604246839
        0x24041210:    24041337    7..$    DCD    604246839
        0x24041214:    24041337    7..$    DCD    604246839
        0x24041218:    24041337    7..$    DCD    604246839
        0x2404121c:    24041337    7..$    DCD    604246839
        0x24041220:    24041337    7..$    DCD    604246839
        0x24041224:    24041337    7..$    DCD    604246839
        0x24041228:    24041337    7..$    DCD    604246839
        0x2404122c:    00000000    ....    DCD    0
        0x24041230:    24041337    7..$    DCD    604246839
        0x24041234:    24041337    7..$    DCD    604246839
        0x24041238:    00000000    ....    DCD    0
        0x2404123c:    24041337    7..$    DCD    604246839
        0x24041240:    24041337    7..$    DCD    604246839
        0x24041244:    24041337    7..$    DCD    604246839
        0x24041248:    24041337    7..$    DCD    604246839
        0x2404124c:    24041337    7..$    DCD    604246839
        0x24041250:    24041337    7..$    DCD    604246839
        0x24041254:    24041337    7..$    DCD    604246839
        0x24041258:    24041337    7..$    DCD    604246839
        0x2404125c:    24041337    7..$    DCD    604246839
        0x24041260:    24041337    7..$    DCD    604246839
        0x24041264:    24041337    7..$    DCD    604246839
        0x24041268:    24041337    7..$    DCD    604246839
        0x2404126c:    24041337    7..$    DCD    604246839
        0x24041270:    24041337    7..$    DCD    604246839
        0x24041274:    24041337    7..$    DCD    604246839
        0x24041278:    24041337    7..$    DCD    604246839
        0x2404127c:    00000000    ....    DCD    0
        0x24041280:    24041337    7..$    DCD    604246839
        0x24041284:    24041337    7..$    DCD    604246839
        0x24041288:    24041337    7..$    DCD    604246839
        0x2404128c:    00000000    ....    DCD    0
        0x24041290:    00000000    ....    DCD    0
        0x24041294:    24041337    7..$    DCD    604246839
    $t
    !!!main
    __Vectors_End
    __main
        0x24041298:    f000f802    ....    BL       __scatterload ; 0x240412a0
        0x2404129c:    f000f82e    ....    BL       __rt_entry ; 0x240412fc
    !!!scatter
    __scatterload
    __scatterload_rt2
    __scatterload_rt2_thumb_only
        0x240412a0:    a00a        ..      ADR      r0,{pc}+0x2c ; 0x240412cc
        0x240412a2:    e8900c00    ....    LDM      r0,{r10,r11}
        0x240412a6:    4482        .D      ADD      r10,r10,r0
        0x240412a8:    4483        .D      ADD      r11,r11,r0
        0x240412aa:    f1aa0701    ....    SUB      r7,r10,#1
    __scatterload_null
        0x240412ae:    45da        .E      CMP      r10,r11
        0x240412b0:    d101        ..      BNE      0x240412b6 ; __scatterload_null + 8
        0x240412b2:    f000f823    ..#.    BL       __rt_entry ; 0x240412fc
        0x240412b6:    f2af0e09    ....    ADR      lr,{pc}-7 ; 0x240412af
        0x240412ba:    e8ba000f    ....    LDM      r10!,{r0-r3}
        0x240412be:    f0130f01    ....    TST      r3,#1
        0x240412c2:    bf18        ..      IT       NE
        0x240412c4:    1afb        ..      SUBNE    r3,r7,r3
        0x240412c6:    f0430301    C...    ORR      r3,r3,#1
        0x240412ca:    4718        .G      BX       r3
    $d
        0x240412cc:    0000360c    .6..    DCD    13836
        0x240412d0:    0000361c    .6..    DCD    13852
    $t
    !!handler_zi
    __scatterload_zeroinit
        0x240412d4:    2300        .#      MOVS     r3,#0
        0x240412d6:    2400        .$      MOVS     r4,#0
        0x240412d8:    2500        .%      MOVS     r5,#0
        0x240412da:    2600        .&      MOVS     r6,#0
        0x240412dc:    3a10        .:      SUBS     r2,r2,#0x10
        0x240412de:    bf28        (.      IT       CS
        0x240412e0:    c178        x.      STMCS    r1!,{r3-r6}
        0x240412e2:    d8fb        ..      BHI      0x240412dc ; __scatterload_zeroinit + 8
        0x240412e4:    0752        R.      LSLS     r2,r2,#29
        0x240412e6:    bf28        (.      IT       CS
        0x240412e8:    c130        0.      STMCS    r1!,{r4,r5}
        0x240412ea:    bf48        H.      IT       MI
        0x240412ec:    600b        .`      STRMI    r3,[r1,#0]
        0x240412ee:    4770        pG      BX       lr
    .ARM.Collect$$libinit$$00000000
    __rt_lib_init
        0x240412f0:    b51f        ..      PUSH     {r0-r4,lr}
    .ARM.Collect$$libinit$$00000001
    __rt_lib_init_fp_1
        0x240412f2:    f003fac7    ....    BL       _fp_init ; 0x24044884
    .ARM.Collect$$libinit$$00000004
    .ARM.Collect$$libinit$$0000000A
    .ARM.Collect$$libinit$$0000000C
    .ARM.Collect$$libinit$$0000000E
    .ARM.Collect$$libinit$$00000011
    .ARM.Collect$$libinit$$00000013
    .ARM.Collect$$libinit$$00000015
    .ARM.Collect$$libinit$$00000017
    .ARM.Collect$$libinit$$00000019
    .ARM.Collect$$libinit$$0000001B
    .ARM.Collect$$libinit$$0000001D
    .ARM.Collect$$libinit$$0000001F
    .ARM.Collect$$libinit$$00000021
    .ARM.Collect$$libinit$$00000023
    .ARM.Collect$$libinit$$00000025
    .ARM.Collect$$libinit$$0000002C
    .ARM.Collect$$libinit$$0000002E
    .ARM.Collect$$libinit$$00000030
    .ARM.Collect$$libinit$$00000032
    .ARM.Collect$$libinit$$00000033
    __rt_lib_init_alloca_1
    __rt_lib_init_argv_1
    __rt_lib_init_atexit_1
    __rt_lib_init_clock_1
    __rt_lib_init_cpp_1
    __rt_lib_init_exceptions_1
    __rt_lib_init_fp_trap_1
    __rt_lib_init_getenv_1
    __rt_lib_init_heap_1
    __rt_lib_init_lc_collate_1
    __rt_lib_init_lc_ctype_1
    __rt_lib_init_lc_monetary_1
    __rt_lib_init_lc_numeric_1
    __rt_lib_init_lc_time_1
    __rt_lib_init_preinit_1
    __rt_lib_init_rand_1
    __rt_lib_init_return
    __rt_lib_init_signal_1
    __rt_lib_init_stdio_1
    __rt_lib_init_user_alloc_1
        0x240412f6:    bd1f        ..      POP      {r0-r4,pc}
    .ARM.Collect$$libshutdown$$00000000
    __rt_lib_shutdown
        0x240412f8:    b510        ..      PUSH     {r4,lr}
    .ARM.Collect$$libshutdown$$00000002
    .ARM.Collect$$libshutdown$$00000004
    .ARM.Collect$$libshutdown$$00000007
    .ARM.Collect$$libshutdown$$0000000A
    .ARM.Collect$$libshutdown$$0000000C
    .ARM.Collect$$libshutdown$$0000000F
    .ARM.Collect$$libshutdown$$00000010
    __rt_lib_shutdown_cpp_1
    __rt_lib_shutdown_fp_trap_1
    __rt_lib_shutdown_heap_1
    __rt_lib_shutdown_return
    __rt_lib_shutdown_signal_1
    __rt_lib_shutdown_stdio_1
    __rt_lib_shutdown_user_alloc_1
        0x240412fa:    bd10        ..      POP      {r4,pc}
    .ARM.Collect$$rtentry$$00000000
    .ARM.Collect$$rtentry$$00000002
    .ARM.Collect$$rtentry$$00000004
    __rt_entry
    __rt_entry_presh_1
    __rt_entry_sh
        0x240412fc:    f000f8f1    ....    BL       __user_setup_stackheap ; 0x240414e2
        0x24041300:    4611        .F      MOV      r1,r2
    .ARM.Collect$$rtentry$$00000009
    .ARM.Collect$$rtentry$$0000000A
    __rt_entry_li
    __rt_entry_postsh_1
        0x24041302:    f7fffff5    ....    BL       __rt_lib_init ; 0x240412f0
    .ARM.Collect$$rtentry$$0000000C
    .ARM.Collect$$rtentry$$0000000D
    __rt_entry_main
    __rt_entry_postli_1
        0x24041306:    f003fa6b    ..k.    BL       main ; 0x240447e0
        0x2404130a:    f000f90f    ....    BL       exit ; 0x2404152c
    .ARM.Collect$$rtexit$$00000000
    __rt_exit
        0x2404130e:    b403        ..      PUSH     {r0,r1}
    .ARM.Collect$$rtexit$$00000002
    .ARM.Collect$$rtexit$$00000003
    __rt_exit_ls
    __rt_exit_prels_1
        0x24041310:    f7fffff2    ....    BL       __rt_lib_shutdown ; 0x240412f8
    .ARM.Collect$$rtexit$$00000004
    __rt_exit_exit
        0x24041314:    bc03        ..      POP      {r0,r1}
        0x24041316:    f003fa4f    ..O.    BL       _sys_exit ; 0x240447b8
        0x2404131a:    0000        ..      MOVS     r0,r0
    .text
    $v0
    Reset_Handler
        0x2404131c:    480c        .H      LDR      r0,[pc,#48] ; [0x24041350] = 0x24043cf9
        0x2404131e:    4780        .G      BLX      r0
        0x24041320:    480c        .H      LDR      r0,[pc,#48] ; [0x24041354] = 0x24041299
        0x24041322:    4700        .G      BX       r0
        0x24041324:    e7fe        ..      B        0x24041324 ; Reset_Handler + 8
        0x24041326:    e7fe        ..      B        0x24041326 ; Reset_Handler + 10
        0x24041328:    e7fe        ..      B        0x24041328 ; Reset_Handler + 12
        0x2404132a:    e7fe        ..      B        0x2404132a ; Reset_Handler + 14
        0x2404132c:    e7fe        ..      B        0x2404132c ; Reset_Handler + 16
        0x2404132e:    e7fe        ..      B        0x2404132e ; Reset_Handler + 18
        0x24041330:    e7fe        ..      B        0x24041330 ; Reset_Handler + 20
        0x24041332:    e7fe        ..      B        0x24041332 ; Reset_Handler + 22
        0x24041334:    e7fe        ..      B        0x24041334 ; Reset_Handler + 24
    ADC3_IRQHandler
    ADC_IRQHandler
    BDMA_Channel0_IRQHandler
    BDMA_Channel1_IRQHandler
    BDMA_Channel2_IRQHandler
    BDMA_Channel3_IRQHandler
    BDMA_Channel4_IRQHandler
    BDMA_Channel5_IRQHandler
    BDMA_Channel6_IRQHandler
    BDMA_Channel7_IRQHandler
    CEC_IRQHandler
    COMP1_IRQHandler
    CRS_IRQHandler
    CRYP_IRQHandler
    DCMI_IRQHandler
    DFSDM1_FLT0_IRQHandler
    DFSDM1_FLT1_IRQHandler
    DFSDM1_FLT2_IRQHandler
    DFSDM1_FLT3_IRQHandler
    DMA1_Stream0_IRQHandler
    DMA1_Stream1_IRQHandler
    DMA1_Stream2_IRQHandler
    DMA1_Stream3_IRQHandler
    DMA1_Stream4_IRQHandler
    DMA1_Stream5_IRQHandler
    DMA1_Stream6_IRQHandler
    DMA1_Stream7_IRQHandler
    DMA2D_IRQHandler
    DMA2_Stream0_IRQHandler
    DMA2_Stream1_IRQHandler
    DMA2_Stream2_IRQHandler
    DMA2_Stream3_IRQHandler
    DMA2_Stream4_IRQHandler
    DMA2_Stream5_IRQHandler
    DMA2_Stream6_IRQHandler
    DMA2_Stream7_IRQHandler
    DMAMUX1_OVR_IRQHandler
    DMAMUX2_OVR_IRQHandler
    ECC_IRQHandler
    ETH_IRQHandler
    ETH_WKUP_IRQHandler
    EXTI0_IRQHandler
    EXTI15_10_IRQHandler
    EXTI1_IRQHandler
    EXTI2_IRQHandler
    EXTI3_IRQHandler
    EXTI4_IRQHandler
    EXTI9_5_IRQHandler
    FDCAN1_IT0_IRQHandler
    FDCAN1_IT1_IRQHandler
    FDCAN2_IT0_IRQHandler
    FDCAN2_IT1_IRQHandler
    FDCAN_CAL_IRQHandler
    FLASH_IRQHandler
    FMC_IRQHandler
    FPU_IRQHandler
    HASH_RNG_IRQHandler
    HRTIM1_FLT_IRQHandler
    HRTIM1_Master_IRQHandler
    HRTIM1_TIMA_IRQHandler
    HRTIM1_TIMB_IRQHandler
    HRTIM1_TIMC_IRQHandler
    HRTIM1_TIMD_IRQHandler
    HRTIM1_TIME_IRQHandler
    HSEM1_IRQHandler
    I2C1_ER_IRQHandler
    I2C1_EV_IRQHandler
    I2C2_ER_IRQHandler
    I2C2_EV_IRQHandler
    I2C3_ER_IRQHandler
    I2C3_EV_IRQHandler
    I2C4_ER_IRQHandler
    I2C4_EV_IRQHandler
    JPEG_IRQHandler
    LPTIM1_IRQHandler
    LPTIM2_IRQHandler
    LPTIM3_IRQHandler
    LPTIM4_IRQHandler
    LPTIM5_IRQHandler
    LPUART1_IRQHandler
    LTDC_ER_IRQHandler
    LTDC_IRQHandler
    MDIOS_IRQHandler
    MDIOS_WKUP_IRQHandler
    MDMA_IRQHandler
    OTG_FS_EP1_IN_IRQHandler
    OTG_FS_EP1_OUT_IRQHandler
    OTG_FS_IRQHandler
    OTG_FS_WKUP_IRQHandler
    OTG_HS_EP1_IN_IRQHandler
    OTG_HS_EP1_OUT_IRQHandler
    OTG_HS_IRQHandler
    OTG_HS_WKUP_IRQHandler
    PVD_AVD_IRQHandler
    QUADSPI_IRQHandler
    RCC_IRQHandler
    RTC_Alarm_IRQHandler
    RTC_WKUP_IRQHandler
    SAI1_IRQHandler
    SAI2_IRQHandler
    SAI3_IRQHandler
    SAI4_IRQHandler
    SDMMC1_IRQHandler
    SDMMC2_IRQHandler
    SPDIF_RX_IRQHandler
    SPI1_IRQHandler
    SPI2_IRQHandler
    SPI3_IRQHandler
    SPI4_IRQHandler
    SPI5_IRQHandler
    SPI6_IRQHandler
    SWPMI1_IRQHandler
    TAMP_STAMP_IRQHandler
    TIM15_IRQHandler
    TIM16_IRQHandler
    TIM17_IRQHandler
    TIM1_BRK_IRQHandler
    TIM1_CC_IRQHandler
    TIM1_TRG_COM_IRQHandler
    TIM1_UP_IRQHandler
    TIM2_IRQHandler
    TIM3_IRQHandler
    TIM4_IRQHandler
    TIM5_IRQHandler
    TIM7_IRQHandler
    TIM8_BRK_TIM12_IRQHandler
    TIM8_CC_IRQHandler
    TIM8_TRG_COM_TIM14_IRQHandler
    TIM8_UP_TIM13_IRQHandler
    UART4_IRQHandler
    UART5_IRQHandler
    UART7_IRQHandler
    UART8_IRQHandler
    USART1_IRQHandler
    USART2_IRQHandler
    USART3_IRQHandler
    USART6_IRQHandler
    WAKEUP_PIN_IRQHandler
    WWDG_IRQHandler
        0x24041336:    e7fe        ..      B        ADC3_IRQHandler ; 0x24041336
    __user_initial_stackheap
        0x24041338:    4807        .H      LDR      r0,[pc,#28] ; [0x24041358] = 0x24044a90
        0x2404133a:    4908        .I      LDR      r1,[pc,#32] ; [0x2404135c] = 0x24045090
        0x2404133c:    4a08        .J      LDR      r2,[pc,#32] ; [0x24041360] = 0x24044c90
        0x2404133e:    4b09        .K      LDR      r3,[pc,#36] ; [0x24041364] = 0x24044c90
        0x24041340:    4770        pG      BX       lr
    $d
        0x24041342:    0000        ..      DCW    0
    $t
    start_app
        0x24041344:    4b08        .K      LDR      r3,[pc,#32] ; [0x24041368] = 0xe000ed08
        0x24041346:    6018        .`      STR      r0,[r3,#0]
        0x24041348:    f8d0d000    ....    LDR      sp,[r0,#0]
        0x2404134c:    6841        Ah      LDR      r1,[r0,#4]
        0x2404134e:    4708        .G      BX       r1
    $d
        0x24041350:    24043cf9    .<.$    DCD    604257529
        0x24041354:    24041299    ...$    DCD    604246681
        0x24041358:    24044a90    .J.$    DCD    604261008
        0x2404135c:    24045090    .P.$    DCD    604262544
        0x24041360:    24044c90    .L.$    DCD    604261520
        0x24041364:    24044c90    .L.$    DCD    604261520
        0x24041368:    e000ed08    ....    DCD    3758157064
    $t
    .text
    __use_no_semihosting
        0x2404136c:    4770        pG      BX       lr
    .text
    __aeabi_uldivmod
    _ll_udiv
        0x2404136e:    ea530c02    S...    ORRS     r12,r3,r2
        0x24041372:    f0008069    ..i.    BEQ.W    0x24041448 ; __aeabi_uldivmod + 218
        0x24041376:    e92d4bf0    -..K    PUSH     {r4-r9,r11,lr}
        0x2404137a:    f04f0600    O...    MOV      r6,#0
        0x2404137e:    2b00        .+      CMP      r3,#0
        0x24041380:    bf1f        ..      ITTTT    NE
        0x24041382:    fab3f583    ....    CLZNE    r5,r3
        0x24041386:    fa03f405    ....    LSLNE    r4,r3,r5
        0x2404138a:    fa24f605    $...    LSRNE    r6,r4,r5
        0x2404138e:    405e        ^@      EORNE    r6,r6,r3
        0x24041390:    bf12        ..      ITEE     NE
        0x24041392:    4316        .C      ORRNE    r6,r6,r2
        0x24041394:    fab2f582    ....    CLZEQ    r5,r2
        0x24041398:    fa02f405    ....    LSLEQ    r4,r2,r5
        0x2404139c:    f1c50520    .. .    RSB      r5,r5,#0x20
        0x240413a0:    bf1e        ..      ITTT     NE
        0x240413a2:    fa22fc05    "...    LSRNE    r12,r2,r5
        0x240413a6:    ea44040c    D...    ORRNE    r4,r4,r12
        0x240413aa:    3520         5      ADDNE    r5,r5,#0x20
        0x240413ac:    ea564c04    V..L    ORRS     r12,r6,r4,LSL #16
        0x240413b0:    ea4f4414    O..D    LSR      r4,r4,#16
        0x240413b4:    bf18        ..      IT       NE
        0x240413b6:    1c64        d.      ADDNE    r4,r4,#1
        0x240413b8:    f04f0800    O...    MOV      r8,#0
        0x240413bc:    f04f0900    O...    MOV      r9,#0
        0x240413c0:    4290        .B      CMP      r0,r2
        0x240413c2:    eb710c03    q...    SBCS     r12,r1,r3
        0x240413c6:    d339        9.      BCC      0x2404143c ; __aeabi_uldivmod + 206
        0x240413c8:    2900        .)      CMP      r1,#0
        0x240413ca:    bf19        ..      ITTEE    NE
        0x240413cc:    fab1f781    ....    CLZNE    r7,r1
        0x240413d0:    fa01f607    ....    LSLNE    r6,r1,r7
        0x240413d4:    fab0f780    ....    CLZEQ    r7,r0
        0x240413d8:    fa00f607    ....    LSLEQ    r6,r0,r7
        0x240413dc:    f1c70720    .. .    RSB      r7,r7,#0x20
        0x240413e0:    bf1e        ..      ITTT     NE
        0x240413e2:    fa20fc07     ...    LSRNE    r12,r0,r7
        0x240413e6:    ea46060c    F...    ORRNE    r6,r6,r12
        0x240413ea:    3720         7      ADDNE    r7,r7,#0x20
        0x240413ec:    fbb6fcf4    ....    UDIV     r12,r6,r4
        0x240413f0:    eba70705    ....    SUB      r7,r7,r5
        0x240413f4:    3f10        .?      SUBS     r7,r7,#0x10
        0x240413f6:    f0070b1f    ....    AND      r11,r7,#0x1f
        0x240413fa:    f1cb0620    .. .    RSB      r6,r11,#0x20
        0x240413fe:    fa2cf606    ,...    LSR      r6,r12,r6
        0x24041402:    fa0cfb0b    ....    LSL      r11,r12,r11
        0x24041406:    bf44        D.      ITT      MI
        0x24041408:    46b3        .F      MOVMI    r11,r6
        0x2404140a:    2600        .&      MOVMI    r6,#0
        0x2404140c:    2f20         /      CMP      r7,#0x20
        0x2404140e:    bfa4        ..      ITT      GE
        0x24041410:    465e        ^F      MOVGE    r6,r11
        0x24041412:    f04f0b00    O...    MOVGE    r11,#0
        0x24041416:    ea5b0c06    [...    ORRS     r12,r11,r6
        0x2404141a:    bf08        ..      IT       EQ
        0x2404141c:    f04f0b01    O...    MOVEQ    r11,#1
        0x24041420:    eb19090b    ....    ADDS     r9,r9,r11
        0x24041424:    eb480806    H...    ADC      r8,r8,r6
        0x24041428:    fbab7c02    ...|    UMULL    r7,r12,r11,r2
        0x2404142c:    fb06cc02    ....    MLA      r12,r6,r2,r12
        0x24041430:    fb0bcc03    ....    MLA      r12,r11,r3,r12
        0x24041434:    1bc0        ..      SUBS     r0,r0,r7
        0x24041436:    eb71010c    q...    SBCS     r1,r1,r12
        0x2404143a:    e7c1        ..      B        0x240413c0 ; __aeabi_uldivmod + 82
        0x2404143c:    460b        .F      MOV      r3,r1
        0x2404143e:    4602        .F      MOV      r2,r0
        0x24041440:    4641        AF      MOV      r1,r8
        0x24041442:    4648        HF      MOV      r0,r9
        0x24041444:    e8bd8bf0    ....    POP      {r4-r9,r11,pc}
        0x24041448:    b513        ..      PUSH     {r0,r1,r4,lr}
        0x2404144a:    4308        .C      ORRS     r0,r0,r1
        0x2404144c:    bf18        ..      IT       NE
        0x2404144e:    f04f30ff    O..0    MOVNE    r0,#0xffffffff
        0x24041452:    4601        .F      MOV      r1,r0
        0x24041454:    f3af8000    ....    NOP.W    
        0x24041458:    e8bd401c    ...@    POP      {r2-r4,lr}
        0x2404145c:    4770        pG      BX       lr
        0x2404145e:    0000        ..      MOVS     r0,r0
    .text
    puts
        0x24041460:    b510        ..      PUSH     {r4,lr}
        0x24041462:    4604        .F      MOV      r4,r0
        0x24041464:    e003        ..      B        0x2404146e ; puts + 14
        0x24041466:    f003f9ab    ....    BL       fputc ; 0x240447c0
        0x2404146a:    1c40        @.      ADDS     r0,r0,#1
        0x2404146c:    d009        ..      BEQ      0x24041482 ; puts + 34
        0x2404146e:    f8140b01    ....    LDRB     r0,[r4],#1
        0x24041472:    4905        .I      LDR      r1,[pc,#20] ; [0x24041488] = 0x24044958
        0x24041474:    2800        .(      CMP      r0,#0
        0x24041476:    d1f6        ..      BNE      0x24041466 ; puts + 6
        0x24041478:    e8bd4010    ...@    POP      {r4,lr}
        0x2404147c:    200a        .       MOVS     r0,#0xa
        0x2404147e:    f003b99f    ....    B.W      fputc ; 0x240447c0
        0x24041482:    f04f30ff    O..0    MOV      r0,#0xffffffff
        0x24041486:    bd10        ..      POP      {r4,pc}
    $d
        0x24041488:    24044958    XI.$    DCD    604260696
    $t
    .text
    __aeabi_memclr4
    __aeabi_memclr8
    __rt_memclr_w
        0x2404148c:    f04f0200    O...    MOV      r2,#0
    _memset_w
        0x24041490:    b500        ..      PUSH     {lr}
        0x24041492:    4613        .F      MOV      r3,r2
        0x24041494:    4694        .F      MOV      r12,r2
        0x24041496:    4696        .F      MOV      lr,r2
        0x24041498:    3920         9      SUBS     r1,r1,#0x20
        0x2404149a:    bf22        ".      ITTT     CS
        0x2404149c:    e8a0500c    ...P    STMCS    r0!,{r2,r3,r12,lr}
        0x240414a0:    e8a0500c    ...P    STMCS    r0!,{r2,r3,r12,lr}
        0x240414a4:    f1b10120    .. .    SUBSCS   r1,r1,#0x20
        0x240414a8:    f4bfaff7    ....    BCS.W    0x2404149a ; _memset_w + 10
        0x240414ac:    0709        ..      LSLS     r1,r1,#28
        0x240414ae:    bf28        (.      IT       CS
        0x240414b0:    e8a0500c    ...P    STMCS    r0!,{r2,r3,r12,lr}
        0x240414b4:    bf48        H.      IT       MI
        0x240414b6:    c00c        ..      STMMI    r0!,{r2,r3}
        0x240414b8:    f85deb04    ]...    POP      {lr}
        0x240414bc:    0089        ..      LSLS     r1,r1,#2
        0x240414be:    bf28        (.      IT       CS
        0x240414c0:    f8402b04    @..+    STRCS    r2,[r0],#4
        0x240414c4:    bf08        ..      IT       EQ
        0x240414c6:    4770        pG      BXEQ     lr
        0x240414c8:    bf48        H.      IT       MI
        0x240414ca:    f8202b02     ..+    STRHMI   r2,[r0],#2
        0x240414ce:    f0114f80    ...O    TST      r1,#0x40000000
        0x240414d2:    bf18        ..      IT       NE
        0x240414d4:    f8002b01    ...+    STRBNE   r2,[r0],#1
        0x240414d8:    4770        pG      BX       lr
    .text
    __use_two_region_memory
        0x240414da:    4770        pG      BX       lr
    __rt_heap_escrow$2region
        0x240414dc:    4770        pG      BX       lr
    __rt_heap_expand$2region
        0x240414de:    4770        pG      BX       lr
    .text
    __I$use$semihosting
    __use_no_semihosting_swi
        0x240414e0:    4770        pG      BX       lr
    .text
    __user_setup_stackheap
        0x240414e2:    4675        uF      MOV      r5,lr
        0x240414e4:    f000f82c    ..,.    BL       __user_libspace ; 0x24041540
        0x240414e8:    46ae        .F      MOV      lr,r5
        0x240414ea:    0005        ..      MOVS     r5,r0
        0x240414ec:    4669        iF      MOV      r1,sp
        0x240414ee:    4653        SF      MOV      r3,r10
        0x240414f0:    f0200007     ...    BIC      r0,r0,#7
        0x240414f4:    4685        .F      MOV      sp,r0
        0x240414f6:    b018        ..      ADD      sp,sp,#0x60
        0x240414f8:    b520         .      PUSH     {r5,lr}
        0x240414fa:    f7ffff1d    ....    BL       __user_initial_stackheap ; 0x24041338
        0x240414fe:    e8bd4020    .. @    POP      {r5,lr}
        0x24041502:    f04f0600    O...    MOV      r6,#0
        0x24041506:    f04f0700    O...    MOV      r7,#0
        0x2404150a:    f04f0800    O...    MOV      r8,#0
        0x2404150e:    f04f0b00    O...    MOV      r11,#0
        0x24041512:    46ac        .F      MOV      r12,r5
        0x24041514:    e8ac09c0    ....    STM      r12!,{r6-r8,r11}
        0x24041518:    e8ac09c0    ....    STM      r12!,{r6-r8,r11}
        0x2404151c:    e8ac09c0    ....    STM      r12!,{r6-r8,r11}
        0x24041520:    e8ac09c0    ....    STM      r12!,{r6-r8,r11}
        0x24041524:    f0210107    !...    BIC      r1,r1,#7
        0x24041528:    468d        .F      MOV      sp,r1
        0x2404152a:    4770        pG      BX       lr
    .text
    exit
        0x2404152c:    b510        ..      PUSH     {r4,lr}
        0x2404152e:    4604        .F      MOV      r4,r0
        0x24041530:    f3af8000    ....    NOP.W    
        0x24041534:    4620         F      MOV      r0,r4
        0x24041536:    e8bd4010    ...@    POP      {r4,lr}
        0x2404153a:    f7ffbee8    ....    B.W      __rt_exit ; 0x2404130e
        0x2404153e:    0000        ..      MOVS     r0,r0
    .text
    __user_libspace
    __user_perproc_libspace
    __user_perthread_libspace
        0x24041540:    4800        .H      LDR      r0,[pc,#0] ; [0x24041544] = 0x240448f8
        0x24041542:    4770        pG      BX       lr
    $d
        0x24041544:    240448f8    .H.$    DCD    604260600
    $t.3
    BusFault_Handler
        0x24041548:    e7fe        ..      B        BusFault_Handler ; 0x24041548
        0x2404154a:    0000        ..      MOVS     r0,r0
        0x2404154c:    0000        ..      MOVS     r0,r0
        0x2404154e:    0000        ..      MOVS     r0,r0
    DebugMon_Handler
        0x24041550:    4770        pG      BX       lr
        0x24041552:    0000        ..      MOVS     r0,r0
        0x24041554:    0000        ..      MOVS     r0,r0
        0x24041556:    0000        ..      MOVS     r0,r0
    Error_Handler
        0x24041558:    f3ef8010    ....    MRS      r0,PRIMASK
        0x2404155c:    b672        r.      CPSID    i
        0x2404155e:    bf00        ..      NOP      
        0x24041560:    e7fe        ..      B        0x24041560 ; Error_Handler + 8
        0x24041562:    0000        ..      MOVS     r0,r0
        0x24041564:    0000        ..      MOVS     r0,r0
        0x24041566:    0000        ..      MOVS     r0,r0
    HAL_DeInit
        0x24041568:    b580        ..      PUSH     {r7,lr}
        0x2404156a:    f244407c    D.|@    MOV      r0,#0x447c
        0x2404156e:    f2450131    E.1.    MOV      r1,#0x5031
        0x24041572:    f6c50002    ....    MOVT     r0,#0x5802
        0x24041576:    f24c0223    L.#.    MOV      r2,#0xc023
        0x2404157a:    f2c00101    ....    MOVT     r1,#1
        0x2404157e:    f6c02200    ..."    MOVT     r2,#0xa00
        0x24041582:    6001        .`      STR      r1,[r0,#0]
        0x24041584:    2100        .!      MOVS     r1,#0
        0x24041586:    6001        .`      STR      r1,[r0,#0]
        0x24041588:    6042        B`      STR      r2,[r0,#4]
        0x2404158a:    f2402271    @.q"    MOV      r2,#0x271
        0x2404158e:    6041        A`      STR      r1,[r0,#4]
        0x24041590:    6082        .`      STR      r2,[r0,#8]
        0x24041592:    f24072ff    @..r    MOV      r2,#0x7ff
        0x24041596:    6081        .`      STR      r1,[r0,#8]
        0x24041598:    f2c03228    ..(2    MOVT     r2,#0x328
        0x2404159c:    60c2        .`      STR      r2,[r0,#0xc]
        0x2404159e:    2218        ."      MOVS     r2,#0x18
        0x240415a0:    60c1        .`      STR      r1,[r0,#0xc]
        0x240415a2:    6102        .a      STR      r2,[r0,#0x10]
        0x240415a4:    f24c32ff    L..2    MOV      r2,#0xc3ff
        0x240415a8:    6101        .a      STR      r1,[r0,#0x10]
        0x240415aa:    f6ce02ff    ....    MOVT     r2,#0xe8ff
        0x240415ae:    6142        Ba      STR      r2,[r0,#0x14]
        0x240415b0:    f44f729b    O..r    MOV      r2,#0x136
        0x240415b4:    6141        Aa      STR      r1,[r0,#0x14]
        0x240415b6:    6182        .a      STR      r2,[r0,#0x18]
        0x240415b8:    f2430233    C.3.    MOV      r2,#0x3033
        0x240415bc:    6181        .a      STR      r1,[r0,#0x18]
        0x240415be:    f2c312d7    ....    MOVT     r2,#0x31d7
        0x240415c2:    61c2        .a      STR      r2,[r0,#0x1c]
        0x240415c4:    f64d62aa    M..b    MOV      r2,#0xdeaa
        0x240415c8:    61c1        .a      STR      r1,[r0,#0x1c]
        0x240415ca:    f2c00220    .. .    MOVT     r2,#0x20
        0x240415ce:    6202        .b      STR      r2,[r0,#0x20]
        0x240415d0:    6201        .b      STR      r1,[r0,#0x20]
        0x240415d2:    f000f971    ..q.    BL       HAL_MspDeInit ; 0x240418b8
        0x240415d6:    2000        .       MOVS     r0,#0
        0x240415d8:    bd80        ..      POP      {r7,pc}
        0x240415da:    0000        ..      MOVS     r0,r0
        0x240415dc:    0000        ..      MOVS     r0,r0
        0x240415de:    0000        ..      MOVS     r0,r0
    HAL_Delay
        0x240415e0:    b5b0        ..      PUSH     {r4,r5,r7,lr}
        0x240415e2:    4604        .F      MOV      r4,r0
        0x240415e4:    f000f8f0    ....    BL       HAL_GetTick ; 0x240417c8
        0x240415e8:    f64401f0    D...    MOV      r1,#0x48f0
        0x240415ec:    4605        .F      MOV      r5,r0
        0x240415ee:    f2c24104    ...A    MOVT     r1,#0x2404
        0x240415f2:    1c62        b.      ADDS     r2,r4,#1
        0x240415f4:    7809        .x      LDRB     r1,[r1,#0]
        0x240415f6:    bf18        ..      IT       NE
        0x240415f8:    440c        .D      ADDNE    r4,r1
        0x240415fa:    bf00        ..      NOP      
        0x240415fc:    f000f8e4    ....    BL       HAL_GetTick ; 0x240417c8
        0x24041600:    1b40        @.      SUBS     r0,r0,r5
        0x24041602:    42a0        .B      CMP      r0,r4
        0x24041604:    d3fa        ..      BCC      0x240415fc ; HAL_Delay + 28
        0x24041606:    bdb0        ..      POP      {r4,r5,r7,pc}
    HAL_GPIO_Init
        0x24041608:    e92d4ff0    -..O    PUSH     {r4-r11,lr}
        0x2404160c:    b083        ..      SUB      sp,sp,#0xc
        0x2404160e:    680c        .h      LDR      r4,[r1,#0]
        0x24041610:    2c00        .,      CMP      r4,#0
        0x24041612:    f00080c6    ....    BEQ.W    0x240417a2 ; HAL_GPIO_Init + 410
        0x24041616:    f1004226    ..&B    ADD      r2,r0,#0xa6000000
        0x2404161a:    f2424700    B..G    MOVW     r7,#0x2400
        0x2404161e:    f10272ff    ...r    ADD      r2,r2,#0x1fe0000
        0x24041622:    f6c50702    ....    MOVT     r7,#0x5802
        0x24041626:    ea4f22b2    O.."    ROR      r2,r2,#10
        0x2404162a:    9201        ..      STR      r2,[sp,#4]
        0x2404162c:    220a        ."      MOVS     r2,#0xa
        0x2404162e:    42b8        .B      CMP      r0,r7
        0x24041630:    bf08        ..      IT       EQ
        0x24041632:    2209        ."      MOVEQ    r2,#9
        0x24041634:    2500        .%      MOVS     r5,#0
        0x24041636:    2700        .'      MOVS     r7,#0
        0x24041638:    f04f0a01    O...    MOV      r10,#1
        0x2404163c:    9200        ..      STR      r2,[sp,#0]
        0x2404163e:    e009        ..      B        0x24041654 ; HAL_GPIO_Init + 76
        0x24041640:    680c        .h      LDR      r4,[r1,#0]
        0x24041642:    3704        .7      ADDS     r7,#4
        0x24041644:    fa34f20a    4...    LSRS     r2,r4,r10
        0x24041648:    f10a0a01    ....    ADD      r10,r10,#1
        0x2404164c:    f1050502    ....    ADD      r5,r5,#2
        0x24041650:    f00080a7    ....    BEQ.W    0x240417a2 ; HAL_GPIO_Init + 410
        0x24041654:    f1aa0901    ....    SUB      r9,r10,#1
        0x24041658:    2201        ."      MOVS     r2,#1
        0x2404165a:    fa02fe09    ....    LSL      lr,r2,r9
        0x2404165e:    ea14080e    ....    ANDS     r8,r4,lr
        0x24041662:    d0ed        ..      BEQ      0x24041640 ; HAL_GPIO_Init + 56
        0x24041664:    f8d1b004    ....    LDR      r11,[r1,#4]
        0x24041668:    f00b0403    ....    AND      r4,r11,#3
        0x2404166c:    f1a40c01    ....    SUB      r12,r4,#1
        0x24041670:    f1bc0f01    ....    CMP      r12,#1
        0x24041674:    d811        ..      BHI      0x2404169a ; HAL_GPIO_Init + 146
        0x24041676:    2203        ."      MOVS     r2,#3
        0x24041678:    6886        .h      LDR      r6,[r0,#8]
        0x2404167a:    40aa        .@      LSLS     r2,r2,r5
        0x2404167c:    68cb        .h      LDR      r3,[r1,#0xc]
        0x2404167e:    ea260202    &...    BIC      r2,r6,r2
        0x24041682:    40ab        .@      LSLS     r3,r3,r5
        0x24041684:    431a        .C      ORRS     r2,r2,r3
        0x24041686:    6082        .`      STR      r2,[r0,#8]
        0x24041688:    f3cb1300    ....    UBFX     r3,r11,#4,#1
        0x2404168c:    6842        Bh      LDR      r2,[r0,#4]
        0x2404168e:    ea22020e    "...    BIC      r2,r2,lr
        0x24041692:    fa03f309    ....    LSL      r3,r3,r9
        0x24041696:    431a        .C      ORRS     r2,r2,r3
        0x24041698:    6042        B`      STR      r2,[r0,#4]
        0x2404169a:    2c03        .,      CMP      r4,#3
        0x2404169c:    d01e        ..      BEQ      0x240416dc ; HAL_GPIO_Init + 212
        0x2404169e:    2303        .#      MOVS     r3,#3
        0x240416a0:    68c2        .h      LDR      r2,[r0,#0xc]
        0x240416a2:    40ab        .@      LSLS     r3,r3,r5
        0x240416a4:    2c02        .,      CMP      r4,#2
        0x240416a6:    ea220203    "...    BIC      r2,r2,r3
        0x240416aa:    688b        .h      LDR      r3,[r1,#8]
        0x240416ac:    fa03f305    ....    LSL      r3,r3,r5
        0x240416b0:    ea420203    B...    ORR      r2,r2,r3
        0x240416b4:    60c2        .`      STR      r2,[r0,#0xc]
        0x240416b6:    d111        ..      BNE      0x240416dc ; HAL_GPIO_Init + 212
        0x240416b8:    f06f0203    o...    MVN      r2,#3
        0x240416bc:    f007061c    ....    AND      r6,r7,#0x1c
        0x240416c0:    ea020259    ..Y.    AND      r2,r2,r9,LSR #1
        0x240416c4:    230f        .#      MOVS     r3,#0xf
        0x240416c6:    4402        .D      ADD      r2,r2,r0
        0x240416c8:    fa03f406    ....    LSL      r4,r3,r6
        0x240416cc:    f8d2c020    .. .    LDR      r12,[r2,#0x20]
        0x240416d0:    690b        .i      LDR      r3,[r1,#0x10]
        0x240416d2:    ea2c0404    ,...    BIC      r4,r12,r4
        0x240416d6:    40b3        .@      LSLS     r3,r3,r6
        0x240416d8:    4323        #C      ORRS     r3,r3,r4
        0x240416da:    6213        .b      STR      r3,[r2,#0x20]
        0x240416dc:    2303        .#      MOVS     r3,#3
        0x240416de:    6802        .h      LDR      r2,[r0,#0]
        0x240416e0:    40ab        .@      LSLS     r3,r3,r5
        0x240416e2:    684e        Nh      LDR      r6,[r1,#4]
        0x240416e4:    439a        .C      BICS     r2,r2,r3
        0x240416e6:    f0060303    ....    AND      r3,r6,#3
        0x240416ea:    40ab        .@      LSLS     r3,r3,r5
        0x240416ec:    f4163f40    ..@?    TST      r6,#0x30000
        0x240416f0:    ea420203    B...    ORR      r2,r2,r3
        0x240416f4:    6002        .`      STR      r2,[r0,#0]
        0x240416f6:    d0a3        ..      BEQ      0x24041640 ; HAL_GPIO_Init + 56
        0x240416f8:    f24443f4    D..C    MOV      r3,#0x44f4
        0x240416fc:    f2404e08    @..N    MOVW     lr,#0x408
        0x24041700:    f6c50302    ....    MOVT     r3,#0x5802
        0x24041704:    f6c50e00    ....    MOVT     lr,#0x5800
        0x24041708:    681a        .h      LDR      r2,[r3,#0]
        0x2404170a:    f0420202    B...    ORR      r2,r2,#2
        0x2404170e:    601a        .`      STR      r2,[r3,#0]
        0x24041710:    681a        .h      LDR      r2,[r3,#0]
        0x24041712:    f007030c    ....    AND      r3,r7,#0xc
        0x24041716:    f0020202    ....    AND      r2,r2,#2
        0x2404171a:    9202        ..      STR      r2,[sp,#8]
        0x2404171c:    9a02        ..      LDR      r2,[sp,#8]
        0x2404171e:    f0290203    )...    BIC      r2,r9,#3
        0x24041722:    9c01        ..      LDR      r4,[sp,#4]
        0x24041724:    9e00        ..      LDR      r6,[sp,#0]
        0x24041726:    2c09        .,      CMP      r4,#9
        0x24041728:    bf38        8.      IT       CC
        0x2404172a:    4626        &F      MOVCC    r6,r4
        0x2404172c:    240f        .$      MOVS     r4,#0xf
        0x2404172e:    f852c00e    R...    LDR      r12,[r2,lr]
        0x24041732:    409c        .@      LSLS     r4,r4,r3
        0x24041734:    ea2c0404    ,...    BIC      r4,r12,r4
        0x24041738:    fa06f303    ....    LSL      r3,r6,r3
        0x2404173c:    f04f4cb0    O..L    MOV      r12,#0x58000000
        0x24041740:    4323        #C      ORRS     r3,r3,r4
        0x24041742:    f842300e    B..0    STR      r3,[r2,lr]
        0x24041746:    f8dc2000    ...     LDR      r2,[r12,#0]
        0x2404174a:    684b        Kh      LDR      r3,[r1,#4]
        0x2404174c:    ea420608    B...    ORR      r6,r2,r8
        0x24041750:    02dc        ..      LSLS     r4,r3,#11
        0x24041752:    bf58        X.      IT       PL
        0x24041754:    ea220608    "...    BICPL    r6,r2,r8
        0x24041758:    029c        ..      LSLS     r4,r3,#10
        0x2404175a:    f8cc6000    ...`    STR      r6,[r12,#0]
        0x2404175e:    f2400c04    @...    MOVW     r12,#4
        0x24041762:    f6c50c00    ....    MOVT     r12,#0x5800
        0x24041766:    f8dc2000    ...     LDR      r2,[r12,#0]
        0x2404176a:    ea420608    B...    ORR      r6,r2,r8
        0x2404176e:    bf58        X.      IT       PL
        0x24041770:    ea220608    "...    BICPL    r6,r2,r8
        0x24041774:    039c        ..      LSLS     r4,r3,#14
        0x24041776:    f8cc6000    ...`    STR      r6,[r12,#0]
        0x2404177a:    f8dc2080    ...     LDR      r2,[r12,#0x80]
        0x2404177e:    ea420608    B...    ORR      r6,r2,r8
        0x24041782:    bf58        X.      IT       PL
        0x24041784:    ea220608    "...    BICPL    r6,r2,r8
        0x24041788:    03db        ..      LSLS     r3,r3,#15
        0x2404178a:    f8cc6080    ...`    STR      r6,[r12,#0x80]
        0x2404178e:    f8dc207c    ..|     LDR      r2,[r12,#0x7c]
        0x24041792:    ea420608    B...    ORR      r6,r2,r8
        0x24041796:    bf58        X.      IT       PL
        0x24041798:    ea220608    "...    BICPL    r6,r2,r8
        0x2404179c:    f8cc607c    ..|`    STR      r6,[r12,#0x7c]
        0x240417a0:    e74e        N.      B        0x24041640 ; HAL_GPIO_Init + 56
        0x240417a2:    b003        ..      ADD      sp,sp,#0xc
        0x240417a4:    e8bd8ff0    ....    POP      {r4-r11,pc}
    HAL_GPIO_ReadPin
        0x240417a8:    6900        .i      LDR      r0,[r0,#0x10]
        0x240417aa:    4008        .@      ANDS     r0,r0,r1
        0x240417ac:    bf18        ..      IT       NE
        0x240417ae:    2001        .       MOVNE    r0,#1
        0x240417b0:    4770        pG      BX       lr
        0x240417b2:    0000        ..      MOVS     r0,r0
        0x240417b4:    0000        ..      MOVS     r0,r0
        0x240417b6:    0000        ..      MOVS     r0,r0
    HAL_GetREVID
        0x240417b8:    f2410000    A...    MOVW     r0,#0x1000
        0x240417bc:    f6c54000    ...@    MOVT     r0,#0x5c00
        0x240417c0:    6800        .h      LDR      r0,[r0,#0]
        0x240417c2:    0c00        ..      LSRS     r0,r0,#16
        0x240417c4:    4770        pG      BX       lr
        0x240417c6:    0000        ..      MOVS     r0,r0
    HAL_GetTick
        0x240417c8:    f644208c    D..     MOV      r0,#0x4a8c
        0x240417cc:    f2c24004    ...@    MOVT     r0,#0x2404
        0x240417d0:    6800        .h      LDR      r0,[r0,#0]
        0x240417d2:    4770        pG      BX       lr
        0x240417d4:    0000        ..      MOVS     r0,r0
        0x240417d6:    0000        ..      MOVS     r0,r0
    HAL_IncTick
        0x240417d8:    f64400f0    D...    MOV      r0,#0x48f0
        0x240417dc:    f644218c    D..!    MOV      r1,#0x4a8c
        0x240417e0:    f2c24004    ...@    MOVT     r0,#0x2404
        0x240417e4:    f2c24104    ...A    MOVT     r1,#0x2404
        0x240417e8:    7800        .x      LDRB     r0,[r0,#0]
        0x240417ea:    680a        .h      LDR      r2,[r1,#0]
        0x240417ec:    4410        .D      ADD      r0,r0,r2
        0x240417ee:    6008        .`      STR      r0,[r1,#0]
        0x240417f0:    4770        pG      BX       lr
        0x240417f2:    0000        ..      MOVS     r0,r0
        0x240417f4:    0000        ..      MOVS     r0,r0
        0x240417f6:    0000        ..      MOVS     r0,r0
    HAL_Init
        0x240417f8:    b580        ..      PUSH     {r7,lr}
        0x240417fa:    2003        .       MOVS     r0,#3
        0x240417fc:    f000f884    ....    BL       HAL_NVIC_SetPriorityGrouping ; 0x24041908
        0x24041800:    f001f8f2    ....    BL       HAL_RCC_GetSysClockFreq ; 0x240429e8
        0x24041804:    f2444118    D..A    MOV      r1,#0x4418
        0x24041808:    f644039e    D...    MOV      r3,#0x489e
        0x2404180c:    f6c50102    ....    MOVT     r1,#0x5802
        0x24041810:    f2c24304    ...C    MOVT     r3,#0x2404
        0x24041814:    680a        .h      LDR      r2,[r1,#0]
        0x24041816:    6809        .h      LDR      r1,[r1,#0]
        0x24041818:    f001010f    ....    AND      r1,r1,#0xf
        0x2404181c:    f3c22203    ..."    UBFX     r2,r2,#8,#4
        0x24041820:    5c59        Y\      LDRB     r1,[r3,r1]
        0x24041822:    5c9a        .\      LDRB     r2,[r3,r2]
        0x24041824:    f001011f    ....    AND      r1,r1,#0x1f
        0x24041828:    f002021f    ....    AND      r2,r2,#0x1f
        0x2404182c:    40d0        .@      LSRS     r0,r0,r2
        0x2404182e:    f64402ec    D...    MOV      r2,#0x48ec
        0x24041832:    f2c24204    ...B    MOVT     r2,#0x2404
        0x24041836:    fa20f101     ...    LSR      r1,r0,r1
        0x2404183a:    6011        .`      STR      r1,[r2,#0]
        0x2404183c:    f64401e8    D...    MOV      r1,#0x48e8
        0x24041840:    f2c24104    ...A    MOVT     r1,#0x2404
        0x24041844:    6008        .`      STR      r0,[r1,#0]
        0x24041846:    200f        .       MOVS     r0,#0xf
        0x24041848:    f000f80a    ....    BL       HAL_InitTick ; 0x24041860
        0x2404184c:    2800        .(      CMP      r0,#0
        0x2404184e:    bf1c        ..      ITT      NE
        0x24041850:    2001        .       MOVNE    r0,#1
        0x24041852:    bd80        ..      POPNE    {r7,pc}
        0x24041854:    f000f834    ..4.    BL       HAL_MspInit ; 0x240418c0
        0x24041858:    2000        .       MOVS     r0,#0
        0x2404185a:    bd80        ..      POP      {r7,pc}
        0x2404185c:    0000        ..      MOVS     r0,r0
        0x2404185e:    0000        ..      MOVS     r0,r0
    HAL_InitTick
        0x24041860:    b5b0        ..      PUSH     {r4,r5,r7,lr}
        0x24041862:    f64401f0    D...    MOV      r1,#0x48f0
        0x24041866:    f2c24104    ...A    MOVT     r1,#0x2404
        0x2404186a:    7809        .x      LDRB     r1,[r1,#0]
        0x2404186c:    b301        ..      CBZ      r1,0x240418b0 ; HAL_InitTick + 80
        0x2404186e:    4604        .F      MOV      r4,r0
        0x24041870:    f64400e8    D...    MOV      r0,#0x48e8
        0x24041874:    f2c24004    ...@    MOVT     r0,#0x2404
        0x24041878:    f44f727a    O.zr    MOV      r2,#0x3e8
        0x2404187c:    fbb2f1f1    ....    UDIV     r1,r2,r1
        0x24041880:    6800        .h      LDR      r0,[r0,#0]
        0x24041882:    fbb0f0f1    ....    UDIV     r0,r0,r1
        0x24041886:    f001fc47    ..G.    BL       HAL_SYSTICK_Config ; 0x24043118
        0x2404188a:    2c0f        .,      CMP      r4,#0xf
        0x2404188c:    f04f0501    O...    MOV      r5,#1
        0x24041890:    d80c        ..      BHI      0x240418ac ; HAL_InitTick + 76
        0x24041892:    b958        X.      CBNZ     r0,0x240418ac ; HAL_InitTick + 76
        0x24041894:    f04f30ff    O..0    MOV      r0,#0xffffffff
        0x24041898:    2200        ."      MOVS     r2,#0
        0x2404189a:    4621        !F      MOV      r1,r4
        0x2404189c:    2500        .%      MOVS     r5,#0
        0x2404189e:    f000f823    ..#.    BL       HAL_NVIC_SetPriority ; 0x240418e8
        0x240418a2:    f64400f4    D...    MOV      r0,#0x48f4
        0x240418a6:    f2c24004    ...@    MOVT     r0,#0x2404
        0x240418aa:    6004        .`      STR      r4,[r0,#0]
        0x240418ac:    4628        (F      MOV      r0,r5
        0x240418ae:    bdb0        ..      POP      {r4,r5,r7,pc}
        0x240418b0:    2001        .       MOVS     r0,#1
        0x240418b2:    bdb0        ..      POP      {r4,r5,r7,pc}
        0x240418b4:    0000        ..      MOVS     r0,r0
        0x240418b6:    0000        ..      MOVS     r0,r0
    HAL_MspDeInit
        0x240418b8:    4770        pG      BX       lr
        0x240418ba:    0000        ..      MOVS     r0,r0
        0x240418bc:    0000        ..      MOVS     r0,r0
        0x240418be:    0000        ..      MOVS     r0,r0
    HAL_MspInit
        0x240418c0:    b081        ..      SUB      sp,sp,#4
        0x240418c2:    f24440f4    D..@    MOV      r0,#0x44f4
        0x240418c6:    f6c50002    ....    MOVT     r0,#0x5802
        0x240418ca:    6801        .h      LDR      r1,[r0,#0]
        0x240418cc:    f0410102    A...    ORR      r1,r1,#2
        0x240418d0:    6001        .`      STR      r1,[r0,#0]
        0x240418d2:    6800        .h      LDR      r0,[r0,#0]
        0x240418d4:    f0000002    ....    AND      r0,r0,#2
        0x240418d8:    9000        ..      STR      r0,[sp,#0]
        0x240418da:    9800        ..      LDR      r0,[sp,#0]
        0x240418dc:    b001        ..      ADD      sp,sp,#4
        0x240418de:    4770        pG      BX       lr
    HAL_NVIC_EnableIRQ
        0x240418e0:    b580        ..      PUSH     {r7,lr}
        0x240418e2:    f002ff2d    ..-.    BL       __NVIC_EnableIRQ ; 0x24044740
        0x240418e6:    bd80        ..      POP      {r7,pc}
    HAL_NVIC_SetPriority
        0x240418e8:    b570        p.      PUSH     {r4-r6,lr}
        0x240418ea:    4614        .F      MOV      r4,r2
        0x240418ec:    460d        .F      MOV      r5,r1
        0x240418ee:    4606        .F      MOV      r6,r0
        0x240418f0:    f002ff36    ..6.    BL       __NVIC_GetPriorityGrouping ; 0x24044760
        0x240418f4:    4629        )F      MOV      r1,r5
        0x240418f6:    4622        "F      MOV      r2,r4
        0x240418f8:    f002f81e    ....    BL       NVIC_EncodePriority ; 0x24043938
        0x240418fc:    4601        .F      MOV      r1,r0
        0x240418fe:    4630        0F      MOV      r0,r6
        0x24041900:    f002ff36    ..6.    BL       __NVIC_SetPriority ; 0x24044770
        0x24041904:    bd70        p.      POP      {r4-r6,pc}
        0x24041906:    0000        ..      MOVS     r0,r0
    HAL_NVIC_SetPriorityGrouping
        0x24041908:    b580        ..      PUSH     {r7,lr}
        0x2404190a:    f002ff45    ..E.    BL       __NVIC_SetPriorityGrouping ; 0x24044798
        0x2404190e:    bd80        ..      POP      {r7,pc}
    HAL_PWREx_ConfigSupply
        0x24041910:    b5b0        ..      PUSH     {r4,r5,r7,lr}
        0x24041912:    f644050c    D...    MOV      r5,#0x480c
        0x24041916:    f6c50502    ....    MOVT     r5,#0x5802
        0x2404191a:    6829        )h      LDR      r1,[r5,#0]
        0x2404191c:    0749        I.      LSLS     r1,r1,#29
        0x2404191e:    6829        )h      LDR      r1,[r5,#0]
        0x24041920:    d405        ..      BMI      0x2404192e ; HAL_PWREx_ConfigSupply + 30
        0x24041922:    f0010107    ....    AND      r1,r1,#7
        0x24041926:    1a08        ..      SUBS     r0,r1,r0
        0x24041928:    bf18        ..      IT       NE
        0x2404192a:    2001        .       MOVNE    r0,#1
        0x2404192c:    bdb0        ..      POP      {r4,r5,r7,pc}
        0x2404192e:    f0210107    !...    BIC      r1,r1,#7
        0x24041932:    4308        .C      ORRS     r0,r0,r1
        0x24041934:    6028        (`      STR      r0,[r5,#0]
        0x24041936:    f7ffff47    ..G.    BL       HAL_GetTick ; 0x240417c8
        0x2404193a:    4604        .F      MOV      r4,r0
        0x2404193c:    f8550c08    U...    LDR      r0,[r5,#-8]
        0x24041940:    0480        ..      LSLS     r0,r0,#18
        0x24041942:    d407        ..      BMI      0x24041954 ; HAL_PWREx_ConfigSupply + 68
        0x24041944:    f7ffff40    ..@.    BL       HAL_GetTick ; 0x240417c8
        0x24041948:    1b00        ..      SUBS     r0,r0,r4
        0x2404194a:    f5b07f7a    ..z.    CMP      r0,#0x3e8
        0x2404194e:    d9f5        ..      BLS      0x2404193c ; HAL_PWREx_ConfigSupply + 44
        0x24041950:    2001        .       MOVS     r0,#1
        0x24041952:    bdb0        ..      POP      {r4,r5,r7,pc}
        0x24041954:    2000        .       MOVS     r0,#0
        0x24041956:    bdb0        ..      POP      {r4,r5,r7,pc}
    HAL_RCCEx_GetD3PCLK1Freq
        0x24041958:    b580        ..      PUSH     {r7,lr}
        0x2404195a:    f000fff5    ....    BL       HAL_RCC_GetHCLKFreq ; 0x24042948
        0x2404195e:    f2444120    D. A    MOV      r1,#0x4420
        0x24041962:    f644029e    D...    MOV      r2,#0x489e
        0x24041966:    f6c50102    ....    MOVT     r1,#0x5802
        0x2404196a:    f2c24204    ...B    MOVT     r2,#0x2404
        0x2404196e:    6809        .h      LDR      r1,[r1,#0]
        0x24041970:    f3c11102    ....    UBFX     r1,r1,#4,#3
        0x24041974:    5c51        Q\      LDRB     r1,[r2,r1]
        0x24041976:    f001011f    ....    AND      r1,r1,#0x1f
        0x2404197a:    40c8        .@      LSRS     r0,r0,r1
        0x2404197c:    bd80        ..      POP      {r7,pc}
        0x2404197e:    0000        ..      MOVS     r0,r0
    HAL_RCCEx_GetPLL2ClockFreq
        0x24041980:    b580        ..      PUSH     {r7,lr}
        0x24041982:    f2444e38    D.8N    MOV      lr,#0x4438
        0x24041986:    f6c50e02    ....    MOVT     lr,#0x5802
        0x2404198a:    f85e3c10    ^..<    LDR      r3,[lr,#-0x10]
        0x2404198e:    f85e1c10    ^...    LDR      r1,[lr,#-0x10]
        0x24041992:    f3c13c05    ...<    UBFX     r12,r1,#12,#6
        0x24041996:    f85e1c0c    ^...    LDR      r1,[lr,#-0xc]
        0x2404199a:    f1bc0f00    ....    CMP      r12,#0
        0x2404199e:    f8de2004    ...     LDR      r2,[lr,#4]
        0x240419a2:    d014        ..      BEQ      0x240419ce ; HAL_RCCEx_GetPLL2ClockFreq + 78
        0x240419a4:    f3c11100    ....    UBFX     r1,r1,#4,#1
        0x240419a8:    f3c202cc    ....    UBFX     r2,r2,#3,#13
        0x240419ac:    4351        QC      MULS     r1,r2,r1
        0x240419ae:    ee001a10    ....    VMOV     s0,r1
        0x240419b2:    f0030103    ....    AND      r1,r3,#3
        0x240419b6:    2902        .)      CMP      r1,#2
        0x240419b8:    eeb80a40    ..@.    VCVT.F32.U32 s0,s0
        0x240419bc:    d00c        ..      BEQ      0x240419d8 ; HAL_RCCEx_GetPLL2ClockFreq + 88
        0x240419be:    b971        q.      CBNZ     r1,0x240419de ; HAL_RCCEx_GetPLL2ClockFreq + 94
        0x240419c0:    f85e1c38    ^.8.    LDR      r1,[lr,#-0x38]
        0x240419c4:    0689        ..      LSLS     r1,r1,#26
        0x240419c6:    d40d        ..      BMI      0x240419e4 ; HAL_RCCEx_GetPLL2ClockFreq + 100
        0x240419c8:    ed9f1a34    ..4.    VLDR     s2,[pc,#208] ; [0x24041a9c] = 0x4c742400
        0x240419cc:    e018        ..      B        0x24041a00 ; HAL_RCCEx_GetPLL2ClockFreq + 128
        0x240419ce:    2100        .!      MOVS     r1,#0
        0x240419d0:    6081        .`      STR      r1,[r0,#8]
        0x240419d2:    e9c01100    ....    STRD     r1,r1,[r0,#0]
        0x240419d6:    bd80        ..      POP      {r7,pc}
        0x240419d8:    ed9f1a2f    ../.    VLDR     s2,[pc,#188] ; [0x24041a98] = 0x4bbebc20
        0x240419dc:    e010        ..      B        0x24041a00 ; HAL_RCCEx_GetPLL2ClockFreq + 128
        0x240419de:    ed9f1a2d    ..-.    VLDR     s2,[pc,#180] ; [0x24041a94] = 0x4a742400
        0x240419e2:    e00d        ..      B        0x24041a00 ; HAL_RCCEx_GetPLL2ClockFreq + 128
        0x240419e4:    f85e1c38    ^.8.    LDR      r1,[lr,#-0x38]
        0x240419e8:    f2490200    I...    MOVW     r2,#0x9000
        0x240419ec:    f2c032d0    ...2    MOVT     r2,#0x3d0
        0x240419f0:    f3c101c1    ....    UBFX     r1,r1,#3,#2
        0x240419f4:    fa22f101    "...    LSR      r1,r2,r1
        0x240419f8:    ee011a10    ....    VMOV     s2,r1
        0x240419fc:    eeb81a41    ..A.    VCVT.F32.U32 s2,s2
        0x24041a00:    f8de1000    ....    LDR      r1,[lr,#0]
        0x24041a04:    ed9f3a26    ..&:    VLDR     s6,[pc,#152] ; [0x24041aa0] = 0x39000000
        0x24041a08:    f36f215f    o._!    BFC      r1,#9,#23
        0x24041a0c:    ee021a10    ....    VMOV     s4,r1
        0x24041a10:    f8de1000    ....    LDR      r1,[lr,#0]
        0x24041a14:    f3c12146    ..F!    UBFX     r1,r1,#9,#7
        0x24041a18:    eeb82a42    ..B*    VCVT.F32.U32 s4,s4
        0x24041a1c:    ee002a03    ...*    VMLA.F32 s4,s0,s6
        0x24041a20:    ee00ca10    ....    VMOV     s0,r12
        0x24041a24:    eeb73a00    ...:    VMOV.F32 s6,#1.00000000
        0x24041a28:    eeb80a40    ..@.    VCVT.F32.U32 s0,s0
        0x24041a2c:    ee810a00    ....    VDIV.F32 s0,s2,s0
        0x24041a30:    ee321a03    2...    VADD.F32 s2,s4,s6
        0x24041a34:    ee021a10    ....    VMOV     s4,r1
        0x24041a38:    eeb82a42    ..B*    VCVT.F32.U32 s4,s4
        0x24041a3c:    ee200a01     ...    VMUL.F32 s0,s0,s2
        0x24041a40:    ee321a03    2...    VADD.F32 s2,s4,s6
        0x24041a44:    ee801a01    ....    VDIV.F32 s2,s0,s2
        0x24041a48:    eebc1ac1    ....    VCVT.U32.F32 s2,s2
        0x24041a4c:    ed801a00    ....    VSTR     s2,[r0,#0]
        0x24041a50:    f8de1000    ....    LDR      r1,[lr,#0]
        0x24041a54:    f3c14106    ...A    UBFX     r1,r1,#16,#7
        0x24041a58:    ee011a10    ....    VMOV     s2,r1
        0x24041a5c:    eeb81a41    ..A.    VCVT.F32.U32 s2,s2
        0x24041a60:    ee311a03    1...    VADD.F32 s2,s2,s6
        0x24041a64:    ee801a01    ....    VDIV.F32 s2,s0,s2
        0x24041a68:    eebc1ac1    ....    VCVT.U32.F32 s2,s2
        0x24041a6c:    ed801a01    ....    VSTR     s2,[r0,#4]
        0x24041a70:    f8de1000    ....    LDR      r1,[lr,#0]
        0x24041a74:    f3c16106    ...a    UBFX     r1,r1,#24,#7
        0x24041a78:    ee011a10    ....    VMOV     s2,r1
        0x24041a7c:    eeb81a41    ..A.    VCVT.F32.U32 s2,s2
        0x24041a80:    ee311a03    1...    VADD.F32 s2,s2,s6
        0x24041a84:    ee800a01    ....    VDIV.F32 s0,s0,s2
        0x24041a88:    eebc0ac0    ....    VCVT.U32.F32 s0,s0
        0x24041a8c:    ee101a10    ....    VMOV     r1,s0
        0x24041a90:    6081        .`      STR      r1,[r0,#8]
        0x24041a92:    bd80        ..      POP      {r7,pc}
    $d.52
        0x24041a94:    4a742400    .$tJ    DCD    1249125376
        0x24041a98:    4bbebc20     ..K    DCD    1270791200
        0x24041a9c:    4c742400    .$tL    DCD    1282679808
        0x24041aa0:    39000000    ...9    DCD    956301312
        0x24041aa4:    00000000    ....    DCD    0
    $t.53
    HAL_RCCEx_GetPLL3ClockFreq
        0x24041aa8:    b580        ..      PUSH     {r7,lr}
        0x24041aaa:    f2444e40    D.@N    MOV      lr,#0x4440
        0x24041aae:    f6c50e02    ....    MOVT     lr,#0x5802
        0x24041ab2:    f85e3c18    ^..<    LDR      r3,[lr,#-0x18]
        0x24041ab6:    f85e1c18    ^...    LDR      r1,[lr,#-0x18]
        0x24041aba:    f3c15c05    ...\    UBFX     r12,r1,#20,#6
        0x24041abe:    f85e1c14    ^...    LDR      r1,[lr,#-0x14]
        0x24041ac2:    f1bc0f00    ....    CMP      r12,#0
        0x24041ac6:    f8de2004    ...     LDR      r2,[lr,#4]
        0x24041aca:    d014        ..      BEQ      0x24041af6 ; HAL_RCCEx_GetPLL3ClockFreq + 78
        0x24041acc:    f3c12100    ...!    UBFX     r1,r1,#8,#1
        0x24041ad0:    f3c202cc    ....    UBFX     r2,r2,#3,#13
        0x24041ad4:    4351        QC      MULS     r1,r2,r1
        0x24041ad6:    ee001a10    ....    VMOV     s0,r1
        0x24041ada:    f0030103    ....    AND      r1,r3,#3
        0x24041ade:    2902        .)      CMP      r1,#2
        0x24041ae0:    eeb80a40    ..@.    VCVT.F32.U32 s0,s0
        0x24041ae4:    d00c        ..      BEQ      0x24041b00 ; HAL_RCCEx_GetPLL3ClockFreq + 88
        0x24041ae6:    b971        q.      CBNZ     r1,0x24041b06 ; HAL_RCCEx_GetPLL3ClockFreq + 94
        0x24041ae8:    f85e1c40    ^.@.    LDR      r1,[lr,#-0x40]
        0x24041aec:    0689        ..      LSLS     r1,r1,#26
        0x24041aee:    d40d        ..      BMI      0x24041b0c ; HAL_RCCEx_GetPLL3ClockFreq + 100
        0x24041af0:    ed9f1a34    ..4.    VLDR     s2,[pc,#208] ; [0x24041bc4] = 0x4c742400
        0x24041af4:    e018        ..      B        0x24041b28 ; HAL_RCCEx_GetPLL3ClockFreq + 128
        0x24041af6:    2100        .!      MOVS     r1,#0
        0x24041af8:    6081        .`      STR      r1,[r0,#8]
        0x24041afa:    e9c01100    ....    STRD     r1,r1,[r0,#0]
        0x24041afe:    bd80        ..      POP      {r7,pc}
        0x24041b00:    ed9f1a2f    ../.    VLDR     s2,[pc,#188] ; [0x24041bc0] = 0x4bbebc20
        0x24041b04:    e010        ..      B        0x24041b28 ; HAL_RCCEx_GetPLL3ClockFreq + 128
        0x24041b06:    ed9f1a2d    ..-.    VLDR     s2,[pc,#180] ; [0x24041bbc] = 0x4a742400
        0x24041b0a:    e00d        ..      B        0x24041b28 ; HAL_RCCEx_GetPLL3ClockFreq + 128
        0x24041b0c:    f85e1c40    ^.@.    LDR      r1,[lr,#-0x40]
        0x24041b10:    f2490200    I...    MOVW     r2,#0x9000
        0x24041b14:    f2c032d0    ...2    MOVT     r2,#0x3d0
        0x24041b18:    f3c101c1    ....    UBFX     r1,r1,#3,#2
        0x24041b1c:    fa22f101    "...    LSR      r1,r2,r1
        0x24041b20:    ee011a10    ....    VMOV     s2,r1
        0x24041b24:    eeb81a41    ..A.    VCVT.F32.U32 s2,s2
        0x24041b28:    f8de1000    ....    LDR      r1,[lr,#0]
        0x24041b2c:    ed9f3a26    ..&:    VLDR     s6,[pc,#152] ; [0x24041bc8] = 0x39000000
        0x24041b30:    f36f215f    o._!    BFC      r1,#9,#23
        0x24041b34:    ee021a10    ....    VMOV     s4,r1
        0x24041b38:    f8de1000    ....    LDR      r1,[lr,#0]
        0x24041b3c:    f3c12146    ..F!    UBFX     r1,r1,#9,#7
        0x24041b40:    eeb82a42    ..B*    VCVT.F32.U32 s4,s4
        0x24041b44:    ee002a03    ...*    VMLA.F32 s4,s0,s6
        0x24041b48:    ee00ca10    ....    VMOV     s0,r12
        0x24041b4c:    eeb73a00    ...:    VMOV.F32 s6,#1.00000000
        0x24041b50:    eeb80a40    ..@.    VCVT.F32.U32 s0,s0
        0x24041b54:    ee810a00    ....    VDIV.F32 s0,s2,s0
        0x24041b58:    ee321a03    2...    VADD.F32 s2,s4,s6
        0x24041b5c:    ee021a10    ....    VMOV     s4,r1
        0x24041b60:    eeb82a42    ..B*    VCVT.F32.U32 s4,s4
        0x24041b64:    ee200a01     ...    VMUL.F32 s0,s0,s2
        0x24041b68:    ee321a03    2...    VADD.F32 s2,s4,s6
        0x24041b6c:    ee801a01    ....    VDIV.F32 s2,s0,s2
        0x24041b70:    eebc1ac1    ....    VCVT.U32.F32 s2,s2
        0x24041b74:    ed801a00    ....    VSTR     s2,[r0,#0]
        0x24041b78:    f8de1000    ....    LDR      r1,[lr,#0]
        0x24041b7c:    f3c14106    ...A    UBFX     r1,r1,#16,#7
        0x24041b80:    ee011a10    ....    VMOV     s2,r1
        0x24041b84:    eeb81a41    ..A.    VCVT.F32.U32 s2,s2
        0x24041b88:    ee311a03    1...    VADD.F32 s2,s2,s6
        0x24041b8c:    ee801a01    ....    VDIV.F32 s2,s0,s2
        0x24041b90:    eebc1ac1    ....    VCVT.U32.F32 s2,s2
        0x24041b94:    ed801a01    ....    VSTR     s2,[r0,#4]
        0x24041b98:    f8de1000    ....    LDR      r1,[lr,#0]
        0x24041b9c:    f3c16106    ...a    UBFX     r1,r1,#24,#7
        0x24041ba0:    ee011a10    ....    VMOV     s2,r1
        0x24041ba4:    eeb81a41    ..A.    VCVT.F32.U32 s2,s2
        0x24041ba8:    ee311a03    1...    VADD.F32 s2,s2,s6
        0x24041bac:    ee800a01    ....    VDIV.F32 s0,s0,s2
        0x24041bb0:    eebc0ac0    ....    VCVT.U32.F32 s0,s0
        0x24041bb4:    ee101a10    ....    VMOV     r1,s0
        0x24041bb8:    6081        .`      STR      r1,[r0,#8]
        0x24041bba:    bd80        ..      POP      {r7,pc}
    $d.54
        0x24041bbc:    4a742400    .$tJ    DCD    1249125376
        0x24041bc0:    4bbebc20     ..K    DCD    1270791200
        0x24041bc4:    4c742400    .$tL    DCD    1282679808
        0x24041bc8:    39000000    ...9    DCD    956301312
        0x24041bcc:    00000000    ....    DCD    0
    $t.0
    HAL_RCCEx_PeriphCLKConfig
        0x24041bd0:    e92d43f0    -..C    PUSH     {r4-r9,lr}
        0x24041bd4:    b081        ..      SUB      sp,sp,#4
        0x24041bd6:    4604        .F      MOV      r4,r0
        0x24041bd8:    78c0        .x      LDRB     r0,[r0,#3]
        0x24041bda:    f244492c    D.,I    MOV      r9,#0x442c
        0x24041bde:    0700        ..      LSLS     r0,r0,#28
        0x24041be0:    f6c50902    ....    MOVT     r9,#0x5802
        0x24041be4:    d401        ..      BMI      0x24041bea ; HAL_RCCEx_PeriphCLKConfig + 26
        0x24041be6:    2600        .&      MOVS     r6,#0
        0x24041be8:    e02d        -.      B        0x24041c46 ; HAL_RCCEx_PeriphCLKConfig + 118
        0x24041bea:    6e60        `n      LDR      r0,[r4,#0x64]
        0x24041bec:    ea4f5030    O.0P    ROR      r0,r0,#20
        0x24041bf0:    2803        .(      CMP      r0,#3
        0x24041bf2:    d80d        ..      BHI      0x24041c10 ; HAL_RCCEx_PeriphCLKConfig + 64
        0x24041bf4:    2600        .&      MOVS     r6,#0
        0x24041bf6:    e8dff000    ....    TBB      [pc,r0]
    $d.1
        0x24041bfa:    0e02        ..      DCW    3586
        0x24041bfc:    1316        ..      DCW    4886
    $t.2
        0x24041bfe:    f8d90000    ....    LDR      r0,[r9,#0]
        0x24041c02:    2600        .&      MOVS     r6,#0
        0x24041c04:    f4403000    @..0    ORR      r0,r0,#0x20000
        0x24041c08:    f8c90000    ....    STR      r0,[r9,#0]
        0x24041c0c:    b94e        N.      CBNZ     r6,0x24041c22 ; HAL_RCCEx_PeriphCLKConfig + 82
        0x24041c0e:    e012        ..      B        0x24041c36 ; HAL_RCCEx_PeriphCLKConfig + 102
        0x24041c10:    2601        .&      MOVS     r6,#1
        0x24041c12:    b936        6.      CBNZ     r6,0x24041c22 ; HAL_RCCEx_PeriphCLKConfig + 82
        0x24041c14:    e00f        ..      B        0x24041c36 ; HAL_RCCEx_PeriphCLKConfig + 102
        0x24041c16:    1d20         .      ADDS     r0,r4,#4
        0x24041c18:    2102        .!      MOVS     r1,#2
        0x24041c1a:    f001fea9    ....    BL       RCCEx_PLL2_Config ; 0x24043970
        0x24041c1e:    4606        .F      MOV      r6,r0
        0x24041c20:    b14e        N.      CBZ      r6,0x24041c36 ; HAL_RCCEx_PeriphCLKConfig + 102
        0x24041c22:    46b0        .F      MOV      r8,r6
        0x24041c24:    e011        ..      B        0x24041c4a ; HAL_RCCEx_PeriphCLKConfig + 122
        0x24041c26:    f1040024    ..$.    ADD      r0,r4,#0x24
        0x24041c2a:    2102        .!      MOVS     r1,#2
        0x24041c2c:    f001ff30    ..0.    BL       RCCEx_PLL3_Config ; 0x24043a90
        0x24041c30:    4606        .F      MOV      r6,r0
        0x24041c32:    2e00        ..      CMP      r6,#0
        0x24041c34:    d1f5        ..      BNE      0x24041c22 ; HAL_RCCEx_PeriphCLKConfig + 82
        0x24041c36:    f8d90024    ..$.    LDR      r0,[r9,#0x24]
        0x24041c3a:    6e61        an      LDR      r1,[r4,#0x64]
        0x24041c3c:    f4201040     .@.    BIC      r0,r0,#0x300000
        0x24041c40:    4308        .C      ORRS     r0,r0,r1
        0x24041c42:    f8c90024    ..$.    STR      r0,[r9,#0x24]
        0x24041c46:    f04f0800    O...    MOV      r8,#0
        0x24041c4a:    7860        `x      LDRB     r0,[r4,#1]
        0x24041c4c:    07c0        ..      LSLS     r0,r0,#31
        0x24041c4e:    d02f        /.      BEQ      0x24041cb0 ; HAL_RCCEx_PeriphCLKConfig + 224
        0x24041c50:    6d60        `m      LDR      r0,[r4,#0x54]
        0x24041c52:    2804        .(      CMP      r0,#4
        0x24041c54:    d807        ..      BHI      0x24041c66 ; HAL_RCCEx_PeriphCLKConfig + 150
        0x24041c56:    e8dff000    ....    TBB      [pc,r0]
    $d.3
        0x24041c5a:    130a        ..      DCW    4874
        0x24041c5c:    0003031b    ....    DCD    197403
    $t.4
        0x24041c60:    b1f6        ..      CBZ      r6,0x24041ca0 ; HAL_RCCEx_PeriphCLKConfig + 208
        0x24041c62:    46b0        .F      MOV      r8,r6
        0x24041c64:    e024        $.      B        0x24041cb0 ; HAL_RCCEx_PeriphCLKConfig + 224
        0x24041c66:    2601        .&      MOVS     r6,#1
        0x24041c68:    2e00        ..      CMP      r6,#0
        0x24041c6a:    d1fa        ..      BNE      0x24041c62 ; HAL_RCCEx_PeriphCLKConfig + 146
        0x24041c6c:    e018        ..      B        0x24041ca0 ; HAL_RCCEx_PeriphCLKConfig + 208
        0x24041c6e:    f8d90000    ....    LDR      r0,[r9,#0]
        0x24041c72:    f4403000    @..0    ORR      r0,r0,#0x20000
        0x24041c76:    f8c90000    ....    STR      r0,[r9,#0]
        0x24041c7a:    2e00        ..      CMP      r6,#0
        0x24041c7c:    d1f1        ..      BNE      0x24041c62 ; HAL_RCCEx_PeriphCLKConfig + 146
        0x24041c7e:    e00f        ..      B        0x24041ca0 ; HAL_RCCEx_PeriphCLKConfig + 208
        0x24041c80:    1d20         .      ADDS     r0,r4,#4
        0x24041c82:    2100        .!      MOVS     r1,#0
        0x24041c84:    f001fe74    ..t.    BL       RCCEx_PLL2_Config ; 0x24043970
        0x24041c88:    4606        .F      MOV      r6,r0
        0x24041c8a:    2e00        ..      CMP      r6,#0
        0x24041c8c:    d1e9        ..      BNE      0x24041c62 ; HAL_RCCEx_PeriphCLKConfig + 146
        0x24041c8e:    e007        ..      B        0x24041ca0 ; HAL_RCCEx_PeriphCLKConfig + 208
        0x24041c90:    f1040024    ..$.    ADD      r0,r4,#0x24
        0x24041c94:    2100        .!      MOVS     r1,#0
        0x24041c96:    f001fefb    ....    BL       RCCEx_PLL3_Config ; 0x24043a90
        0x24041c9a:    4606        .F      MOV      r6,r0
        0x24041c9c:    2e00        ..      CMP      r6,#0
        0x24041c9e:    d1e0        ..      BNE      0x24041c62 ; HAL_RCCEx_PeriphCLKConfig + 146
        0x24041ca0:    f8d90024    ..$.    LDR      r0,[r9,#0x24]
        0x24041ca4:    6d61        am      LDR      r1,[r4,#0x54]
        0x24041ca6:    f0200007     ...    BIC      r0,r0,#7
        0x24041caa:    4308        .C      ORRS     r0,r0,r1
        0x24041cac:    f8c90024    ..$.    STR      r0,[r9,#0x24]
        0x24041cb0:    7860        `x      LDRB     r0,[r4,#1]
        0x24041cb2:    0780        ..      LSLS     r0,r0,#30
        0x24041cb4:    d531        1.      BPL      0x24041d1a ; HAL_RCCEx_PeriphCLKConfig + 330
        0x24041cb6:    6da0        .m      LDR      r0,[r4,#0x58]
        0x24041cb8:    ea4f10b0    O...    ROR      r0,r0,#6
        0x24041cbc:    2804        .(      CMP      r0,#4
        0x24041cbe:    d807        ..      BHI      0x24041cd0 ; HAL_RCCEx_PeriphCLKConfig + 256
        0x24041cc0:    e8dff000    ....    TBB      [pc,r0]
    $d.5
        0x24041cc4:    031b130a    ....    DCD    52105994
        0x24041cc8:    0003        ..      DCW    3
    $t.6
        0x24041cca:    b1f6        ..      CBZ      r6,0x24041d0a ; HAL_RCCEx_PeriphCLKConfig + 314
        0x24041ccc:    46b0        .F      MOV      r8,r6
        0x24041cce:    e024        $.      B        0x24041d1a ; HAL_RCCEx_PeriphCLKConfig + 330
        0x24041cd0:    2601        .&      MOVS     r6,#1
        0x24041cd2:    2e00        ..      CMP      r6,#0
        0x24041cd4:    d1fa        ..      BNE      0x24041ccc ; HAL_RCCEx_PeriphCLKConfig + 252
        0x24041cd6:    e018        ..      B        0x24041d0a ; HAL_RCCEx_PeriphCLKConfig + 314
        0x24041cd8:    f8d90000    ....    LDR      r0,[r9,#0]
        0x24041cdc:    f4403000    @..0    ORR      r0,r0,#0x20000
        0x24041ce0:    f8c90000    ....    STR      r0,[r9,#0]
        0x24041ce4:    2e00        ..      CMP      r6,#0
        0x24041ce6:    d1f1        ..      BNE      0x24041ccc ; HAL_RCCEx_PeriphCLKConfig + 252
        0x24041ce8:    e00f        ..      B        0x24041d0a ; HAL_RCCEx_PeriphCLKConfig + 314
        0x24041cea:    1d20         .      ADDS     r0,r4,#4
        0x24041cec:    2100        .!      MOVS     r1,#0
        0x24041cee:    f001fe3f    ..?.    BL       RCCEx_PLL2_Config ; 0x24043970
        0x24041cf2:    4606        .F      MOV      r6,r0
        0x24041cf4:    2e00        ..      CMP      r6,#0
        0x24041cf6:    d1e9        ..      BNE      0x24041ccc ; HAL_RCCEx_PeriphCLKConfig + 252
        0x24041cf8:    e007        ..      B        0x24041d0a ; HAL_RCCEx_PeriphCLKConfig + 314
        0x24041cfa:    f1040024    ..$.    ADD      r0,r4,#0x24
        0x24041cfe:    2100        .!      MOVS     r1,#0
        0x24041d00:    f001fec6    ....    BL       RCCEx_PLL3_Config ; 0x24043a90
        0x24041d04:    4606        .F      MOV      r6,r0
        0x24041d06:    2e00        ..      CMP      r6,#0
        0x24041d08:    d1e0        ..      BNE      0x24041ccc ; HAL_RCCEx_PeriphCLKConfig + 252
        0x24041d0a:    f8d90024    ..$.    LDR      r0,[r9,#0x24]
        0x24041d0e:    6da1        .m      LDR      r1,[r4,#0x58]
        0x24041d10:    f42070e0     ..p    BIC      r0,r0,#0x1c0
        0x24041d14:    4308        .C      ORRS     r0,r0,r1
        0x24041d16:    f8c90024    ..$.    STR      r0,[r9,#0x24]
        0x24041d1a:    7860        `x      LDRB     r0,[r4,#1]
        0x24041d1c:    0740        @.      LSLS     r0,r0,#29
        0x24041d1e:    d533        3.      BPL      0x24041d88 ; HAL_RCCEx_PeriphCLKConfig + 440
        0x24041d20:    f8d400a4    ....    LDR      r0,[r4,#0xa4]
        0x24041d24:    ea4f5070    O.pP    ROR      r0,r0,#21
        0x24041d28:    2804        .(      CMP      r0,#4
        0x24041d2a:    d807        ..      BHI      0x24041d3c ; HAL_RCCEx_PeriphCLKConfig + 364
        0x24041d2c:    e8dff000    ....    TBB      [pc,r0]
    $d.7
        0x24041d30:    031b130a    ....    DCD    52105994
        0x24041d34:    0003        ..      DCW    3
    $t.8
        0x24041d36:    b1f6        ..      CBZ      r6,0x24041d76 ; HAL_RCCEx_PeriphCLKConfig + 422
        0x24041d38:    46b0        .F      MOV      r8,r6
        0x24041d3a:    e025        %.      B        0x24041d88 ; HAL_RCCEx_PeriphCLKConfig + 440
        0x24041d3c:    2601        .&      MOVS     r6,#1
        0x24041d3e:    2e00        ..      CMP      r6,#0
        0x24041d40:    d1fa        ..      BNE      0x24041d38 ; HAL_RCCEx_PeriphCLKConfig + 360
        0x24041d42:    e018        ..      B        0x24041d76 ; HAL_RCCEx_PeriphCLKConfig + 422
        0x24041d44:    f8d90000    ....    LDR      r0,[r9,#0]
        0x24041d48:    f4403000    @..0    ORR      r0,r0,#0x20000
        0x24041d4c:    f8c90000    ....    STR      r0,[r9,#0]
        0x24041d50:    2e00        ..      CMP      r6,#0
        0x24041d52:    d1f1        ..      BNE      0x24041d38 ; HAL_RCCEx_PeriphCLKConfig + 360
        0x24041d54:    e00f        ..      B        0x24041d76 ; HAL_RCCEx_PeriphCLKConfig + 422
        0x24041d56:    1d20         .      ADDS     r0,r4,#4
        0x24041d58:    2100        .!      MOVS     r1,#0
        0x24041d5a:    f001fe09    ....    BL       RCCEx_PLL2_Config ; 0x24043970
        0x24041d5e:    4606        .F      MOV      r6,r0
        0x24041d60:    2e00        ..      CMP      r6,#0
        0x24041d62:    d1e9        ..      BNE      0x24041d38 ; HAL_RCCEx_PeriphCLKConfig + 360
        0x24041d64:    e007        ..      B        0x24041d76 ; HAL_RCCEx_PeriphCLKConfig + 422
        0x24041d66:    f1040024    ..$.    ADD      r0,r4,#0x24
        0x24041d6a:    2100        .!      MOVS     r1,#0
        0x24041d6c:    f001fe90    ....    BL       RCCEx_PLL3_Config ; 0x24043a90
        0x24041d70:    4606        .F      MOV      r6,r0
        0x24041d72:    2e00        ..      CMP      r6,#0
        0x24041d74:    d1e0        ..      BNE      0x24041d38 ; HAL_RCCEx_PeriphCLKConfig + 360
        0x24041d76:    f8d9002c    ..,.    LDR      r0,[r9,#0x2c]
        0x24041d7a:    f8d410a4    ....    LDR      r1,[r4,#0xa4]
        0x24041d7e:    f4200060     .`.    BIC      r0,r0,#0xe00000
        0x24041d82:    4308        .C      ORRS     r0,r0,r1
        0x24041d84:    f8c9002c    ..,.    STR      r0,[r9,#0x2c]
        0x24041d88:    7860        `x      LDRB     r0,[r4,#1]
        0x24041d8a:    0700        ..      LSLS     r0,r0,#28
        0x24041d8c:    d533        3.      BPL      0x24041df6 ; HAL_RCCEx_PeriphCLKConfig + 550
        0x24041d8e:    f8d400a8    ....    LDR      r0,[r4,#0xa8]
        0x24041d92:    ea4f6030    O.0`    ROR      r0,r0,#24
        0x24041d96:    2804        .(      CMP      r0,#4
        0x24041d98:    d807        ..      BHI      0x24041daa ; HAL_RCCEx_PeriphCLKConfig + 474
        0x24041d9a:    e8dff000    ....    TBB      [pc,r0]
    $d.9
        0x24041d9e:    130a        ..      DCW    4874
        0x24041da0:    0003031b    ....    DCD    197403
    $t.10
        0x24041da4:    b1f6        ..      CBZ      r6,0x24041de4 ; HAL_RCCEx_PeriphCLKConfig + 532
        0x24041da6:    46b0        .F      MOV      r8,r6
        0x24041da8:    e025        %.      B        0x24041df6 ; HAL_RCCEx_PeriphCLKConfig + 550
        0x24041daa:    2601        .&      MOVS     r6,#1
        0x24041dac:    2e00        ..      CMP      r6,#0
        0x24041dae:    d1fa        ..      BNE      0x24041da6 ; HAL_RCCEx_PeriphCLKConfig + 470
        0x24041db0:    e018        ..      B        0x24041de4 ; HAL_RCCEx_PeriphCLKConfig + 532
        0x24041db2:    f8d90000    ....    LDR      r0,[r9,#0]
        0x24041db6:    f4403000    @..0    ORR      r0,r0,#0x20000
        0x24041dba:    f8c90000    ....    STR      r0,[r9,#0]
        0x24041dbe:    2e00        ..      CMP      r6,#0
        0x24041dc0:    d1f1        ..      BNE      0x24041da6 ; HAL_RCCEx_PeriphCLKConfig + 470
        0x24041dc2:    e00f        ..      B        0x24041de4 ; HAL_RCCEx_PeriphCLKConfig + 532
        0x24041dc4:    1d20         .      ADDS     r0,r4,#4
        0x24041dc6:    2100        .!      MOVS     r1,#0
        0x24041dc8:    f001fdd2    ....    BL       RCCEx_PLL2_Config ; 0x24043970
        0x24041dcc:    4606        .F      MOV      r6,r0
        0x24041dce:    2e00        ..      CMP      r6,#0
        0x24041dd0:    d1e9        ..      BNE      0x24041da6 ; HAL_RCCEx_PeriphCLKConfig + 470
        0x24041dd2:    e007        ..      B        0x24041de4 ; HAL_RCCEx_PeriphCLKConfig + 532
        0x24041dd4:    f1040024    ..$.    ADD      r0,r4,#0x24
        0x24041dd8:    2100        .!      MOVS     r1,#0
        0x24041dda:    f001fe59    ..Y.    BL       RCCEx_PLL3_Config ; 0x24043a90
        0x24041dde:    4606        .F      MOV      r6,r0
        0x24041de0:    2e00        ..      CMP      r6,#0
        0x24041de2:    d1e0        ..      BNE      0x24041da6 ; HAL_RCCEx_PeriphCLKConfig + 470
        0x24041de4:    f8d9002c    ..,.    LDR      r0,[r9,#0x2c]
        0x24041de8:    f8d410a8    ....    LDR      r1,[r4,#0xa8]
        0x24041dec:    f02060e0     ..`    BIC      r0,r0,#0x7000000
        0x24041df0:    4308        .C      ORRS     r0,r0,r1
        0x24041df2:    f8c9002c    ..,.    STR      r0,[r9,#0x2c]
        0x24041df6:    78e0        .x      LDRB     r0,[r4,#3]
        0x24041df8:    0780        ..      LSLS     r0,r0,#30
        0x24041dfa:    d527        '.      BPL      0x24041e4c ; HAL_RCCEx_PeriphCLKConfig + 636
        0x24041dfc:    6ca0        .l      LDR      r0,[r4,#0x48]
        0x24041dfe:    ea4f1030    O.0.    ROR      r0,r0,#4
        0x24041e02:    2803        .(      CMP      r0,#3
        0x24041e04:    d806        ..      BHI      0x24041e14 ; HAL_RCCEx_PeriphCLKConfig + 580
        0x24041e06:    e8dff000    ....    TBB      [pc,r0]
    $d.11
        0x24041e0a:    0902        ..      DCW    2306
        0x24041e0c:    0212        ..      DCW    530
    $t.12
        0x24041e0e:    b1ae        ..      CBZ      r6,0x24041e3c ; HAL_RCCEx_PeriphCLKConfig + 620
        0x24041e10:    46b0        .F      MOV      r8,r6
        0x24041e12:    e01b        ..      B        0x24041e4c ; HAL_RCCEx_PeriphCLKConfig + 636
        0x24041e14:    2601        .&      MOVS     r6,#1
        0x24041e16:    2e00        ..      CMP      r6,#0
        0x24041e18:    d1fa        ..      BNE      0x24041e10 ; HAL_RCCEx_PeriphCLKConfig + 576
        0x24041e1a:    e00f        ..      B        0x24041e3c ; HAL_RCCEx_PeriphCLKConfig + 620
        0x24041e1c:    f8d90000    ....    LDR      r0,[r9,#0]
        0x24041e20:    f4403000    @..0    ORR      r0,r0,#0x20000
        0x24041e24:    f8c90000    ....    STR      r0,[r9,#0]
        0x24041e28:    2e00        ..      CMP      r6,#0
        0x24041e2a:    d1f1        ..      BNE      0x24041e10 ; HAL_RCCEx_PeriphCLKConfig + 576
        0x24041e2c:    e006        ..      B        0x24041e3c ; HAL_RCCEx_PeriphCLKConfig + 620
        0x24041e2e:    1d20         .      ADDS     r0,r4,#4
        0x24041e30:    2102        .!      MOVS     r1,#2
        0x24041e32:    f001fd9d    ....    BL       RCCEx_PLL2_Config ; 0x24043970
        0x24041e36:    4606        .F      MOV      r6,r0
        0x24041e38:    2e00        ..      CMP      r6,#0
        0x24041e3a:    d1e9        ..      BNE      0x24041e10 ; HAL_RCCEx_PeriphCLKConfig + 576
        0x24041e3c:    f8d90020    .. .    LDR      r0,[r9,#0x20]
        0x24041e40:    6ca1        .l      LDR      r1,[r4,#0x48]
        0x24041e42:    f0200030     .0.    BIC      r0,r0,#0x30
        0x24041e46:    4308        .C      ORRS     r0,r0,r1
        0x24041e48:    f8c90020    .. .    STR      r0,[r9,#0x20]
        0x24041e4c:    7860        `x      LDRB     r0,[r4,#1]
        0x24041e4e:    06c0        ..      LSLS     r0,r0,#27
        0x24041e50:    d531        1.      BPL      0x24041eb6 ; HAL_RCCEx_PeriphCLKConfig + 742
        0x24041e52:    6de0        .m      LDR      r0,[r4,#0x5c]
        0x24041e54:    ea4f3030    O.00    ROR      r0,r0,#12
        0x24041e58:    2804        .(      CMP      r0,#4
        0x24041e5a:    d807        ..      BHI      0x24041e6c ; HAL_RCCEx_PeriphCLKConfig + 668
        0x24041e5c:    e8dff000    ....    TBB      [pc,r0]
    $d.13
        0x24041e60:    031b130a    ....    DCD    52105994
        0x24041e64:    0003        ..      DCW    3
    $t.14
        0x24041e66:    b1f6        ..      CBZ      r6,0x24041ea6 ; HAL_RCCEx_PeriphCLKConfig + 726
        0x24041e68:    46b0        .F      MOV      r8,r6
        0x24041e6a:    e024        $.      B        0x24041eb6 ; HAL_RCCEx_PeriphCLKConfig + 742
        0x24041e6c:    2601        .&      MOVS     r6,#1
        0x24041e6e:    2e00        ..      CMP      r6,#0
        0x24041e70:    d1fa        ..      BNE      0x24041e68 ; HAL_RCCEx_PeriphCLKConfig + 664
        0x24041e72:    e018        ..      B        0x24041ea6 ; HAL_RCCEx_PeriphCLKConfig + 726
        0x24041e74:    f8d90000    ....    LDR      r0,[r9,#0]
        0x24041e78:    f4403000    @..0    ORR      r0,r0,#0x20000
        0x24041e7c:    f8c90000    ....    STR      r0,[r9,#0]
        0x24041e80:    2e00        ..      CMP      r6,#0
        0x24041e82:    d1f1        ..      BNE      0x24041e68 ; HAL_RCCEx_PeriphCLKConfig + 664
        0x24041e84:    e00f        ..      B        0x24041ea6 ; HAL_RCCEx_PeriphCLKConfig + 726
        0x24041e86:    1d20         .      ADDS     r0,r4,#4
        0x24041e88:    2100        .!      MOVS     r1,#0
        0x24041e8a:    f001fd71    ..q.    BL       RCCEx_PLL2_Config ; 0x24043970
        0x24041e8e:    4606        .F      MOV      r6,r0
        0x24041e90:    2e00        ..      CMP      r6,#0
        0x24041e92:    d1e9        ..      BNE      0x24041e68 ; HAL_RCCEx_PeriphCLKConfig + 664
        0x24041e94:    e007        ..      B        0x24041ea6 ; HAL_RCCEx_PeriphCLKConfig + 726
        0x24041e96:    f1040024    ..$.    ADD      r0,r4,#0x24
        0x24041e9a:    2100        .!      MOVS     r1,#0
        0x24041e9c:    f001fdf8    ....    BL       RCCEx_PLL3_Config ; 0x24043a90
        0x24041ea0:    4606        .F      MOV      r6,r0
        0x24041ea2:    2e00        ..      CMP      r6,#0
        0x24041ea4:    d1e0        ..      BNE      0x24041e68 ; HAL_RCCEx_PeriphCLKConfig + 664
        0x24041ea6:    f8d90024    ..$.    LDR      r0,[r9,#0x24]
        0x24041eaa:    6de1        .m      LDR      r1,[r4,#0x5c]
        0x24041eac:    f42040e0     ..@    BIC      r0,r0,#0x7000
        0x24041eb0:    4308        .C      ORRS     r0,r0,r1
        0x24041eb2:    f8c90024    ..$.    STR      r0,[r9,#0x24]
        0x24041eb6:    7860        `x      LDRB     r0,[r4,#1]
        0x24041eb8:    0680        ..      LSLS     r0,r0,#26
        0x24041eba:    d525        %.      BPL      0x24041f08 ; HAL_RCCEx_PeriphCLKConfig + 824
        0x24041ebc:    6e20         n      LDR      r0,[r4,#0x60]
        0x24041ebe:    ea4f4030    O.0@    ROR      r0,r0,#16
        0x24041ec2:    2805        .(      CMP      r0,#5
        0x24041ec4:    d807        ..      BHI      0x24041ed6 ; HAL_RCCEx_PeriphCLKConfig + 774
        0x24041ec6:    e8dff000    ....    TBB      [pc,r0]
    $d.15
        0x24041eca:    0a03        ..      DCW    2563
        0x24041ecc:    0303030f    ....    DCD    50529039
    $t.16
        0x24041ed0:    b196        ..      CBZ      r6,0x24041ef8 ; HAL_RCCEx_PeriphCLKConfig + 808
        0x24041ed2:    46b0        .F      MOV      r8,r6
        0x24041ed4:    e018        ..      B        0x24041f08 ; HAL_RCCEx_PeriphCLKConfig + 824
        0x24041ed6:    2601        .&      MOVS     r6,#1
        0x24041ed8:    2e00        ..      CMP      r6,#0
        0x24041eda:    d1fa        ..      BNE      0x24041ed2 ; HAL_RCCEx_PeriphCLKConfig + 770
        0x24041edc:    e00c        ..      B        0x24041ef8 ; HAL_RCCEx_PeriphCLKConfig + 808
        0x24041ede:    1d20         .      ADDS     r0,r4,#4
        0x24041ee0:    2101        .!      MOVS     r1,#1
        0x24041ee2:    f001fd45    ..E.    BL       RCCEx_PLL2_Config ; 0x24043970
        0x24041ee6:    e004        ..      B        0x24041ef2 ; HAL_RCCEx_PeriphCLKConfig + 802
        0x24041ee8:    f1040024    ..$.    ADD      r0,r4,#0x24
        0x24041eec:    2101        .!      MOVS     r1,#1
        0x24041eee:    f001fdcf    ....    BL       RCCEx_PLL3_Config ; 0x24043a90
        0x24041ef2:    4606        .F      MOV      r6,r0
        0x24041ef4:    2e00        ..      CMP      r6,#0
        0x24041ef6:    d1ec        ..      BNE      0x24041ed2 ; HAL_RCCEx_PeriphCLKConfig + 770
        0x24041ef8:    f8d90024    ..$.    LDR      r0,[r9,#0x24]
        0x24041efc:    6e21        !n      LDR      r1,[r4,#0x60]
        0x24041efe:    f42020e0     ..     BIC      r0,r0,#0x70000
        0x24041f02:    4308        .C      ORRS     r0,r0,r1
        0x24041f04:    f8c90024    ..$.    STR      r0,[r9,#0x24]
        0x24041f08:    7860        `x      LDRB     r0,[r4,#1]
        0x24041f0a:    0640        @.      LSLS     r0,r0,#25
        0x24041f0c:    d527        '.      BPL      0x24041f5e ; HAL_RCCEx_PeriphCLKConfig + 910
        0x24041f0e:    f8d400ac    ....    LDR      r0,[r4,#0xac]
        0x24041f12:    ea4f7030    O.0p    ROR      r0,r0,#28
        0x24041f16:    2805        .(      CMP      r0,#5
        0x24041f18:    d807        ..      BHI      0x24041f2a ; HAL_RCCEx_PeriphCLKConfig + 858
        0x24041f1a:    e8dff000    ....    TBB      [pc,r0]
    $d.17
        0x24041f1e:    0a03        ..      DCW    2563
        0x24041f20:    0303030f    ....    DCD    50529039
    $t.18
        0x24041f24:    b196        ..      CBZ      r6,0x24041f4c ; HAL_RCCEx_PeriphCLKConfig + 892
        0x24041f26:    46b0        .F      MOV      r8,r6
        0x24041f28:    e019        ..      B        0x24041f5e ; HAL_RCCEx_PeriphCLKConfig + 910
        0x24041f2a:    2601        .&      MOVS     r6,#1
        0x24041f2c:    2e00        ..      CMP      r6,#0
        0x24041f2e:    d1fa        ..      BNE      0x24041f26 ; HAL_RCCEx_PeriphCLKConfig + 854
        0x24041f30:    e00c        ..      B        0x24041f4c ; HAL_RCCEx_PeriphCLKConfig + 892
        0x24041f32:    1d20         .      ADDS     r0,r4,#4
        0x24041f34:    2101        .!      MOVS     r1,#1
        0x24041f36:    f001fd1b    ....    BL       RCCEx_PLL2_Config ; 0x24043970
        0x24041f3a:    e004        ..      B        0x24041f46 ; HAL_RCCEx_PeriphCLKConfig + 886
        0x24041f3c:    f1040024    ..$.    ADD      r0,r4,#0x24
        0x24041f40:    2101        .!      MOVS     r1,#1
        0x24041f42:    f001fda5    ....    BL       RCCEx_PLL3_Config ; 0x24043a90
        0x24041f46:    4606        .F      MOV      r6,r0
        0x24041f48:    2e00        ..      CMP      r6,#0
        0x24041f4a:    d1ec        ..      BNE      0x24041f26 ; HAL_RCCEx_PeriphCLKConfig + 854
        0x24041f4c:    f8d9002c    ..,.    LDR      r0,[r9,#0x2c]
        0x24041f50:    f8d410ac    ....    LDR      r1,[r4,#0xac]
        0x24041f54:    f02040e0     ..@    BIC      r0,r0,#0x70000000
        0x24041f58:    4308        .C      ORRS     r0,r0,r1
        0x24041f5a:    f8c9002c    ..,.    STR      r0,[r9,#0x2c]
        0x24041f5e:    7860        `x      LDRB     r0,[r4,#1]
        0x24041f60:    0600        ..      LSLS     r0,r0,#24
        0x24041f62:    d51f        ..      BPL      0x24041fa4 ; HAL_RCCEx_PeriphCLKConfig + 980
        0x24041f64:    6ee0        .n      LDR      r0,[r4,#0x6c]
        0x24041f66:    b1d0        ..      CBZ      r0,0x24041f9e ; HAL_RCCEx_PeriphCLKConfig + 974
        0x24041f68:    f1b05f00    ..._    CMP      r0,#0x20000000
        0x24041f6c:    d012        ..      BEQ      0x24041f94 ; HAL_RCCEx_PeriphCLKConfig + 964
        0x24041f6e:    f1b05f80    ..._    CMP      r0,#0x10000000
        0x24041f72:    d124        $.      BNE      0x24041fbe ; HAL_RCCEx_PeriphCLKConfig + 1006
        0x24041f74:    f8d90000    ....    LDR      r0,[r9,#0]
        0x24041f78:    f4403000    @..0    ORR      r0,r0,#0x20000
        0x24041f7c:    f8c90000    ....    STR      r0,[r9,#0]
        0x24041f80:    b97e        ~.      CBNZ     r6,0x24041fa2 ; HAL_RCCEx_PeriphCLKConfig + 978
        0x24041f82:    f8d90024    ..$.    LDR      r0,[r9,#0x24]
        0x24041f86:    6ee1        .n      LDR      r1,[r4,#0x6c]
        0x24041f88:    f0205040     .@P    BIC      r0,r0,#0x30000000
        0x24041f8c:    4308        .C      ORRS     r0,r0,r1
        0x24041f8e:    f8c90024    ..$.    STR      r0,[r9,#0x24]
        0x24041f92:    e007        ..      B        0x24041fa4 ; HAL_RCCEx_PeriphCLKConfig + 980
        0x24041f94:    1d20         .      ADDS     r0,r4,#4
        0x24041f96:    2101        .!      MOVS     r1,#1
        0x24041f98:    f001fcea    ....    BL       RCCEx_PLL2_Config ; 0x24043970
        0x24041f9c:    4606        .F      MOV      r6,r0
        0x24041f9e:    2e00        ..      CMP      r6,#0
        0x24041fa0:    d0ef        ..      BEQ      0x24041f82 ; HAL_RCCEx_PeriphCLKConfig + 946
        0x24041fa2:    46b0        .F      MOV      r8,r6
        0x24041fa4:    78e0        .x      LDRB     r0,[r4,#3]
        0x24041fa6:    07c0        ..      LSLS     r0,r0,#31
        0x24041fa8:    d029        ).      BEQ      0x24041ffe ; HAL_RCCEx_PeriphCLKConfig + 1070
        0x24041faa:    6c60        `l      LDR      r0,[r4,#0x44]
        0x24041fac:    2803        .(      CMP      r0,#3
        0x24041fae:    d80a        ..      BHI      0x24041fc6 ; HAL_RCCEx_PeriphCLKConfig + 1014
        0x24041fb0:    e8dff000    ....    TBB      [pc,r0]
    $d.19
        0x24041fb4:    02160d02    ....    DCD    34999554
    $t.20
        0x24041fb8:    b1ce        ..      CBZ      r6,0x24041fee ; HAL_RCCEx_PeriphCLKConfig + 1054
        0x24041fba:    46b0        .F      MOV      r8,r6
        0x24041fbc:    e01f        ..      B        0x24041ffe ; HAL_RCCEx_PeriphCLKConfig + 1070
        0x24041fbe:    2601        .&      MOVS     r6,#1
        0x24041fc0:    2e00        ..      CMP      r6,#0
        0x24041fc2:    d1ee        ..      BNE      0x24041fa2 ; HAL_RCCEx_PeriphCLKConfig + 978
        0x24041fc4:    e7dd        ..      B        0x24041f82 ; HAL_RCCEx_PeriphCLKConfig + 946
        0x24041fc6:    2601        .&      MOVS     r6,#1
        0x24041fc8:    2e00        ..      CMP      r6,#0
        0x24041fca:    d1f6        ..      BNE      0x24041fba ; HAL_RCCEx_PeriphCLKConfig + 1002
        0x24041fcc:    e00f        ..      B        0x24041fee ; HAL_RCCEx_PeriphCLKConfig + 1054
        0x24041fce:    f8d90000    ....    LDR      r0,[r9,#0]
        0x24041fd2:    f4403000    @..0    ORR      r0,r0,#0x20000
        0x24041fd6:    f8c90000    ....    STR      r0,[r9,#0]
        0x24041fda:    2e00        ..      CMP      r6,#0
        0x24041fdc:    d1ed        ..      BNE      0x24041fba ; HAL_RCCEx_PeriphCLKConfig + 1002
        0x24041fde:    e006        ..      B        0x24041fee ; HAL_RCCEx_PeriphCLKConfig + 1054
        0x24041fe0:    1d20         .      ADDS     r0,r4,#4
        0x24041fe2:    2102        .!      MOVS     r1,#2
        0x24041fe4:    f001fcc4    ....    BL       RCCEx_PLL2_Config ; 0x24043970
        0x24041fe8:    4606        .F      MOV      r6,r0
        0x24041fea:    2e00        ..      CMP      r6,#0
        0x24041fec:    d1e5        ..      BNE      0x24041fba ; HAL_RCCEx_PeriphCLKConfig + 1002
        0x24041fee:    f8d90020    .. .    LDR      r0,[r9,#0x20]
        0x24041ff2:    6c61        al      LDR      r1,[r4,#0x44]
        0x24041ff4:    f0200003     ...    BIC      r0,r0,#3
        0x24041ff8:    4308        .C      ORRS     r0,r0,r1
        0x24041ffa:    f8c90020    .. .    STR      r0,[r9,#0x20]
        0x24041ffe:    78a0        .x      LDRB     r0,[r4,#2]
        0x24042000:    0640        @.      LSLS     r0,r0,#25
        0x24042002:    d543        C.      BPL      0x2404208c ; HAL_RCCEx_PeriphCLKConfig + 1212
        0x24042004:    f8d903d4    ....    LDR      r0,[r9,#0x3d4]
        0x24042008:    f4407080    @..p    ORR      r0,r0,#0x100
        0x2404200c:    f8c903d4    ....    STR      r0,[r9,#0x3d4]
        0x24042010:    f7fffbda    ....    BL       HAL_GetTick ; 0x240417c8
        0x24042014:    4607        .F      MOV      r7,r0
        0x24042016:    bf00        ..      NOP      
        0x24042018:    f8d903d4    ....    LDR      r0,[r9,#0x3d4]
        0x2404201c:    05c0        ..      LSLS     r0,r0,#23
        0x2404201e:    d405        ..      BMI      0x2404202c ; HAL_RCCEx_PeriphCLKConfig + 1116
        0x24042020:    f7fffbd2    ....    BL       HAL_GetTick ; 0x240417c8
        0x24042024:    1bc0        ..      SUBS     r0,r0,r7
        0x24042026:    2865        e(      CMP      r0,#0x65
        0x24042028:    d3f6        ..      BCC      0x24042018 ; HAL_RCCEx_PeriphCLKConfig + 1096
        0x2404202a:    2603        .&      MOVS     r6,#3
        0x2404202c:    bb6e        n.      CBNZ     r6,0x2404208a ; HAL_RCCEx_PeriphCLKConfig + 1210
        0x2404202e:    f8d91044    ..D.    LDR      r1,[r9,#0x44]
        0x24042032:    f8d400b0    ....    LDR      r0,[r4,#0xb0]
        0x24042036:    4041        A@      EORS     r1,r1,r0
        0x24042038:    f4117f40    ..@.    TST      r1,#0x300
        0x2404203c:    d011        ..      BEQ      0x24042062 ; HAL_RCCEx_PeriphCLKConfig + 1170
        0x2404203e:    f8d91044    ..D.    LDR      r1,[r9,#0x44]
        0x24042042:    f8d92044    ..D     LDR      r2,[r9,#0x44]
        0x24042046:    f4423280    B..2    ORR      r2,r2,#0x10000
        0x2404204a:    f8c92044    ..D     STR      r2,[r9,#0x44]
        0x2404204e:    f8d92044    ..D     LDR      r2,[r9,#0x44]
        0x24042052:    f4217140    !.@q    BIC      r1,r1,#0x300
        0x24042056:    f4223280    "..2    BIC      r2,r2,#0x10000
        0x2404205a:    f8c92044    ..D     STR      r2,[r9,#0x44]
        0x2404205e:    f8c91044    ..D.    STR      r1,[r9,#0x44]
        0x24042062:    f5b07f80    ....    CMP      r0,#0x100
        0x24042066:    d10f        ..      BNE      0x24042088 ; HAL_RCCEx_PeriphCLKConfig + 1208
        0x24042068:    f7fffbae    ....    BL       HAL_GetTick ; 0x240417c8
        0x2404206c:    4607        .F      MOV      r7,r0
        0x2404206e:    f2413589    A..5    MOV      r5,#0x1389
        0x24042072:    bf00        ..      NOP      
        0x24042074:    f8d90044    ..D.    LDR      r0,[r9,#0x44]
        0x24042078:    0780        ..      LSLS     r0,r0,#30
        0x2404207a:    d405        ..      BMI      0x24042088 ; HAL_RCCEx_PeriphCLKConfig + 1208
        0x2404207c:    f7fffba4    ....    BL       HAL_GetTick ; 0x240417c8
        0x24042080:    1bc0        ..      SUBS     r0,r0,r7
        0x24042082:    42a8        .B      CMP      r0,r5
        0x24042084:    d3f6        ..      BCC      0x24042074 ; HAL_RCCEx_PeriphCLKConfig + 1188
        0x24042086:    2603        .&      MOVS     r6,#3
        0x24042088:    b186        ..      CBZ      r6,0x240420ac ; HAL_RCCEx_PeriphCLKConfig + 1244
        0x2404208a:    46b0        .F      MOV      r8,r6
        0x2404208c:    7820         x      LDRB     r0,[r4,#0]
        0x2404208e:    07c0        ..      LSLS     r0,r0,#31
        0x24042090:    d041        A.      BEQ      0x24042116 ; HAL_RCCEx_PeriphCLKConfig + 1350
        0x24042092:    6fa0        .o      LDR      r0,[r4,#0x78]
        0x24042094:    ea4f00f0    O...    ROR      r0,r0,#3
        0x24042098:    2805        .(      CMP      r0,#5
        0x2404209a:    d823        #.      BHI      0x240420e4 ; HAL_RCCEx_PeriphCLKConfig + 1300
        0x2404209c:    e8dff000    ....    TBB      [pc,r0]
    $d.21
        0x240420a0:    032b2603    .&+.    DCD    53159427
        0x240420a4:    0303        ..      DCW    771
    $t.22
        0x240420a6:    b376        v.      CBZ      r6,0x24042106 ; HAL_RCCEx_PeriphCLKConfig + 1334
        0x240420a8:    46b0        .F      MOV      r8,r6
        0x240420aa:    e034        4.      B        0x24042116 ; HAL_RCCEx_PeriphCLKConfig + 1350
        0x240420ac:    f64f73cf    O..s    MOV      r3,#0xffcf
        0x240420b0:    f8d400b0    ....    LDR      r0,[r4,#0xb0]
        0x240420b4:    f8592c1c    Y..,    LDR      r2,[r9,#-0x1c]
        0x240420b8:    f2c003ff    ....    MOVT     r3,#0xff
        0x240420bc:    f4007140    ..@q    AND      r1,r0,#0x300
        0x240420c0:    f422527c    ".|R    BIC      r2,r2,#0x3f00
        0x240420c4:    ea031310    ....    AND      r3,r3,r0,LSR #4
        0x240420c8:    f5b17f40    ..@.    CMP      r1,#0x300
        0x240420cc:    bf08        ..      IT       EQ
        0x240420ce:    431a        .C      ORREQ    r2,r2,r3
        0x240420d0:    f36f301f    o..0    BFC      r0,#12,#20
        0x240420d4:    f8492c1c    I..,    STR      r2,[r9,#-0x1c]
        0x240420d8:    f8d91044    ..D.    LDR      r1,[r9,#0x44]
        0x240420dc:    4308        .C      ORRS     r0,r0,r1
        0x240420de:    f8c90044    ..D.    STR      r0,[r9,#0x44]
        0x240420e2:    e7d3        ..      B        0x2404208c ; HAL_RCCEx_PeriphCLKConfig + 1212
        0x240420e4:    2601        .&      MOVS     r6,#1
        0x240420e6:    2e00        ..      CMP      r6,#0
        0x240420e8:    d1de        ..      BNE      0x240420a8 ; HAL_RCCEx_PeriphCLKConfig + 1240
        0x240420ea:    e00c        ..      B        0x24042106 ; HAL_RCCEx_PeriphCLKConfig + 1334
        0x240420ec:    1d20         .      ADDS     r0,r4,#4
        0x240420ee:    2101        .!      MOVS     r1,#1
        0x240420f0:    f001fc3e    ..>.    BL       RCCEx_PLL2_Config ; 0x24043970
        0x240420f4:    e004        ..      B        0x24042100 ; HAL_RCCEx_PeriphCLKConfig + 1328
        0x240420f6:    f1040024    ..$.    ADD      r0,r4,#0x24
        0x240420fa:    2101        .!      MOVS     r1,#1
        0x240420fc:    f001fcc8    ....    BL       RCCEx_PLL3_Config ; 0x24043a90
        0x24042100:    4606        .F      MOV      r6,r0
        0x24042102:    2e00        ..      CMP      r6,#0
        0x24042104:    d1d0        ..      BNE      0x240420a8 ; HAL_RCCEx_PeriphCLKConfig + 1240
        0x24042106:    f8d90028    ..(.    LDR      r0,[r9,#0x28]
        0x2404210a:    6fa1        .o      LDR      r1,[r4,#0x78]
        0x2404210c:    f0200038     .8.    BIC      r0,r0,#0x38
        0x24042110:    4308        .C      ORRS     r0,r0,r1
        0x24042112:    f8c90028    ..(.    STR      r0,[r9,#0x28]
        0x24042116:    7820         x      LDRB     r0,[r4,#0]
        0x24042118:    0780        ..      LSLS     r0,r0,#30
        0x2404211a:    d523        #.      BPL      0x24042164 ; HAL_RCCEx_PeriphCLKConfig + 1428
        0x2404211c:    6f60        `o      LDR      r0,[r4,#0x74]
        0x2404211e:    2805        .(      CMP      r0,#5
        0x24042120:    d807        ..      BHI      0x24042132 ; HAL_RCCEx_PeriphCLKConfig + 1378
        0x24042122:    e8dff000    ....    TBB      [pc,r0]
    $d.23
        0x24042126:    0a03        ..      DCW    2563
        0x24042128:    0303030f    ....    DCD    50529039
    $t.24
        0x2404212c:    b196        ..      CBZ      r6,0x24042154 ; HAL_RCCEx_PeriphCLKConfig + 1412
        0x2404212e:    46b0        .F      MOV      r8,r6
        0x24042130:    e018        ..      B        0x24042164 ; HAL_RCCEx_PeriphCLKConfig + 1428
        0x24042132:    2601        .&      MOVS     r6,#1
        0x24042134:    2e00        ..      CMP      r6,#0
        0x24042136:    d1fa        ..      BNE      0x2404212e ; HAL_RCCEx_PeriphCLKConfig + 1374
        0x24042138:    e00c        ..      B        0x24042154 ; HAL_RCCEx_PeriphCLKConfig + 1412
        0x2404213a:    1d20         .      ADDS     r0,r4,#4
        0x2404213c:    2101        .!      MOVS     r1,#1
        0x2404213e:    f001fc17    ....    BL       RCCEx_PLL2_Config ; 0x24043970
        0x24042142:    e004        ..      B        0x2404214e ; HAL_RCCEx_PeriphCLKConfig + 1406
        0x24042144:    f1040024    ..$.    ADD      r0,r4,#0x24
        0x24042148:    2101        .!      MOVS     r1,#1
        0x2404214a:    f001fca1    ....    BL       RCCEx_PLL3_Config ; 0x24043a90
        0x2404214e:    4606        .F      MOV      r6,r0
        0x24042150:    2e00        ..      CMP      r6,#0
        0x24042152:    d1ec        ..      BNE      0x2404212e ; HAL_RCCEx_PeriphCLKConfig + 1374
        0x24042154:    f8d90028    ..(.    LDR      r0,[r9,#0x28]
        0x24042158:    6f61        ao      LDR      r1,[r4,#0x74]
        0x2404215a:    f0200007     ...    BIC      r0,r0,#7
        0x2404215e:    4308        .C      ORRS     r0,r0,r1
        0x24042160:    f8c90028    ..(.    STR      r0,[r9,#0x28]
        0x24042164:    7820         x      LDRB     r0,[r4,#0]
        0x24042166:    0740        @.      LSLS     r0,r0,#29
        0x24042168:    d525        %.      BPL      0x240421b6 ; HAL_RCCEx_PeriphCLKConfig + 1510
        0x2404216a:    f8d40090    ....    LDR      r0,[r4,#0x90]
        0x2404216e:    2805        .(      CMP      r0,#5
        0x24042170:    d807        ..      BHI      0x24042182 ; HAL_RCCEx_PeriphCLKConfig + 1458
        0x24042172:    e8dff000    ....    TBB      [pc,r0]
    $d.25
        0x24042176:    0a03        ..      DCW    2563
        0x24042178:    0303030f    ....    DCD    50529039
    $t.26
        0x2404217c:    b196        ..      CBZ      r6,0x240421a4 ; HAL_RCCEx_PeriphCLKConfig + 1492
        0x2404217e:    46b0        .F      MOV      r8,r6
        0x24042180:    e019        ..      B        0x240421b6 ; HAL_RCCEx_PeriphCLKConfig + 1510
        0x24042182:    2601        .&      MOVS     r6,#1
        0x24042184:    2e00        ..      CMP      r6,#0
        0x24042186:    d1fa        ..      BNE      0x2404217e ; HAL_RCCEx_PeriphCLKConfig + 1454
        0x24042188:    e00c        ..      B        0x240421a4 ; HAL_RCCEx_PeriphCLKConfig + 1492
        0x2404218a:    1d20         .      ADDS     r0,r4,#4
        0x2404218c:    2101        .!      MOVS     r1,#1
        0x2404218e:    f001fbef    ....    BL       RCCEx_PLL2_Config ; 0x24043970
        0x24042192:    e004        ..      B        0x2404219e ; HAL_RCCEx_PeriphCLKConfig + 1486
        0x24042194:    f1040024    ..$.    ADD      r0,r4,#0x24
        0x24042198:    2101        .!      MOVS     r1,#1
        0x2404219a:    f001fc79    ..y.    BL       RCCEx_PLL3_Config ; 0x24043a90
        0x2404219e:    4606        .F      MOV      r6,r0
        0x240421a0:    2e00        ..      CMP      r6,#0
        0x240421a2:    d1ec        ..      BNE      0x2404217e ; HAL_RCCEx_PeriphCLKConfig + 1454
        0x240421a4:    f8d9002c    ..,.    LDR      r0,[r9,#0x2c]
        0x240421a8:    f8d41090    ....    LDR      r1,[r4,#0x90]
        0x240421ac:    f0200007     ...    BIC      r0,r0,#7
        0x240421b0:    4308        .C      ORRS     r0,r0,r1
        0x240421b2:    f8c9002c    ..,.    STR      r0,[r9,#0x2c]
        0x240421b6:    7820         x      LDRB     r0,[r4,#0]
        0x240421b8:    0680        ..      LSLS     r0,r0,#26
        0x240421ba:    d527        '.      BPL      0x2404220c ; HAL_RCCEx_PeriphCLKConfig + 1596
        0x240421bc:    f8d4008c    ....    LDR      r0,[r4,#0x8c]
        0x240421c0:    ea4f7030    O.0p    ROR      r0,r0,#28
        0x240421c4:    2805        .(      CMP      r0,#5
        0x240421c6:    d807        ..      BHI      0x240421d8 ; HAL_RCCEx_PeriphCLKConfig + 1544
        0x240421c8:    e8dff000    ....    TBB      [pc,r0]
    $d.27
        0x240421cc:    030f0a03    ....    DCD    51317251
        0x240421d0:    0303        ..      DCW    771
    $t.28
        0x240421d2:    b196        ..      CBZ      r6,0x240421fa ; HAL_RCCEx_PeriphCLKConfig + 1578
        0x240421d4:    46b0        .F      MOV      r8,r6
        0x240421d6:    e019        ..      B        0x2404220c ; HAL_RCCEx_PeriphCLKConfig + 1596
        0x240421d8:    2601        .&      MOVS     r6,#1
        0x240421da:    2e00        ..      CMP      r6,#0
        0x240421dc:    d1fa        ..      BNE      0x240421d4 ; HAL_RCCEx_PeriphCLKConfig + 1540
        0x240421de:    e00c        ..      B        0x240421fa ; HAL_RCCEx_PeriphCLKConfig + 1578
        0x240421e0:    1d20         .      ADDS     r0,r4,#4
        0x240421e2:    2100        .!      MOVS     r1,#0
        0x240421e4:    f001fbc4    ....    BL       RCCEx_PLL2_Config ; 0x24043970
        0x240421e8:    e004        ..      B        0x240421f4 ; HAL_RCCEx_PeriphCLKConfig + 1572
        0x240421ea:    f1040024    ..$.    ADD      r0,r4,#0x24
        0x240421ee:    2102        .!      MOVS     r1,#2
        0x240421f0:    f001fc4e    ..N.    BL       RCCEx_PLL3_Config ; 0x24043a90
        0x240421f4:    4606        .F      MOV      r6,r0
        0x240421f6:    2e00        ..      CMP      r6,#0
        0x240421f8:    d1ec        ..      BNE      0x240421d4 ; HAL_RCCEx_PeriphCLKConfig + 1540
        0x240421fa:    f8d90028    ..(.    LDR      r0,[r9,#0x28]
        0x240421fe:    f8d4108c    ....    LDR      r1,[r4,#0x8c]
        0x24042202:    f02040e0     ..@    BIC      r0,r0,#0x70000000
        0x24042206:    4308        .C      ORRS     r0,r0,r1
        0x24042208:    f8c90028    ..(.    STR      r0,[r9,#0x28]
        0x2404220c:    7820         x      LDRB     r0,[r4,#0]
        0x2404220e:    0640        @.      LSLS     r0,r0,#25
        0x24042210:    d527        '.      BPL      0x24042262 ; HAL_RCCEx_PeriphCLKConfig + 1682
        0x24042212:    f8d40098    ....    LDR      r0,[r4,#0x98]
        0x24042216:    ea4f20b0    O..     ROR      r0,r0,#10
        0x2404221a:    2805        .(      CMP      r0,#5
        0x2404221c:    d807        ..      BHI      0x2404222e ; HAL_RCCEx_PeriphCLKConfig + 1630
        0x2404221e:    e8dff000    ....    TBB      [pc,r0]
    $d.29
        0x24042222:    0a03        ..      DCW    2563
        0x24042224:    0303030f    ....    DCD    50529039
    $t.30
        0x24042228:    b196        ..      CBZ      r6,0x24042250 ; HAL_RCCEx_PeriphCLKConfig + 1664
        0x2404222a:    46b0        .F      MOV      r8,r6
        0x2404222c:    e019        ..      B        0x24042262 ; HAL_RCCEx_PeriphCLKConfig + 1682
        0x2404222e:    2601        .&      MOVS     r6,#1
        0x24042230:    2e00        ..      CMP      r6,#0
        0x24042232:    d1fa        ..      BNE      0x2404222a ; HAL_RCCEx_PeriphCLKConfig + 1626
        0x24042234:    e00c        ..      B        0x24042250 ; HAL_RCCEx_PeriphCLKConfig + 1664
        0x24042236:    1d20         .      ADDS     r0,r4,#4
        0x24042238:    2100        .!      MOVS     r1,#0
        0x2404223a:    f001fb99    ....    BL       RCCEx_PLL2_Config ; 0x24043970
        0x2404223e:    e004        ..      B        0x2404224a ; HAL_RCCEx_PeriphCLKConfig + 1658
        0x24042240:    f1040024    ..$.    ADD      r0,r4,#0x24
        0x24042244:    2102        .!      MOVS     r1,#2
        0x24042246:    f001fc23    ..#.    BL       RCCEx_PLL3_Config ; 0x24043a90
        0x2404224a:    4606        .F      MOV      r6,r0
        0x2404224c:    2e00        ..      CMP      r6,#0
        0x2404224e:    d1ec        ..      BNE      0x2404222a ; HAL_RCCEx_PeriphCLKConfig + 1626
        0x24042250:    f8d9002c    ..,.    LDR      r0,[r9,#0x2c]
        0x24042254:    f8d41098    ....    LDR      r1,[r4,#0x98]
        0x24042258:    f42050e0     ..P    BIC      r0,r0,#0x1c00
        0x2404225c:    4308        .C      ORRS     r0,r0,r1
        0x2404225e:    f8c9002c    ..,.    STR      r0,[r9,#0x2c]
        0x24042262:    7820         x      LDRB     r0,[r4,#0]
        0x24042264:    0600        ..      LSLS     r0,r0,#24
        0x24042266:    d527        '.      BPL      0x240422b8 ; HAL_RCCEx_PeriphCLKConfig + 1768
        0x24042268:    f8d4009c    ....    LDR      r0,[r4,#0x9c]
        0x2404226c:    ea4f3070    O.p0    ROR      r0,r0,#13
        0x24042270:    2805        .(      CMP      r0,#5
        0x24042272:    d807        ..      BHI      0x24042284 ; HAL_RCCEx_PeriphCLKConfig + 1716
        0x24042274:    e8dff000    ....    TBB      [pc,r0]
    $d.31
        0x24042278:    030f0a03    ....    DCD    51317251
        0x2404227c:    0303        ..      DCW    771
    $t.32
        0x2404227e:    b196        ..      CBZ      r6,0x240422a6 ; HAL_RCCEx_PeriphCLKConfig + 1750
        0x24042280:    46b0        .F      MOV      r8,r6
        0x24042282:    e019        ..      B        0x240422b8 ; HAL_RCCEx_PeriphCLKConfig + 1768
        0x24042284:    2601        .&      MOVS     r6,#1
        0x24042286:    2e00        ..      CMP      r6,#0
        0x24042288:    d1fa        ..      BNE      0x24042280 ; HAL_RCCEx_PeriphCLKConfig + 1712
        0x2404228a:    e00c        ..      B        0x240422a6 ; HAL_RCCEx_PeriphCLKConfig + 1750
        0x2404228c:    1d20         .      ADDS     r0,r4,#4
        0x2404228e:    2100        .!      MOVS     r1,#0
        0x24042290:    f001fb6e    ..n.    BL       RCCEx_PLL2_Config ; 0x24043970
        0x24042294:    e004        ..      B        0x240422a0 ; HAL_RCCEx_PeriphCLKConfig + 1744
        0x24042296:    f1040024    ..$.    ADD      r0,r4,#0x24
        0x2404229a:    2102        .!      MOVS     r1,#2
        0x2404229c:    f001fbf8    ....    BL       RCCEx_PLL3_Config ; 0x24043a90
        0x240422a0:    4606        .F      MOV      r6,r0
        0x240422a2:    2e00        ..      CMP      r6,#0
        0x240422a4:    d1ec        ..      BNE      0x24042280 ; HAL_RCCEx_PeriphCLKConfig + 1712
        0x240422a6:    f8d9002c    ..,.    LDR      r0,[r9,#0x2c]
        0x240422aa:    f8d4109c    ....    LDR      r1,[r4,#0x9c]
        0x240422ae:    f4204060     .`@    BIC      r0,r0,#0xe000
        0x240422b2:    4308        .C      ORRS     r0,r0,r1
        0x240422b4:    f8c9002c    ..,.    STR      r0,[r9,#0x2c]
        0x240422b8:    7820         x      LDRB     r0,[r4,#0]
        0x240422ba:    0700        ..      LSLS     r0,r0,#28
        0x240422bc:    d516        ..      BPL      0x240422ec ; HAL_RCCEx_PeriphCLKConfig + 1820
        0x240422be:    f8d40080    ....    LDR      r0,[r4,#0x80]
        0x240422c2:    f5b05f80    ..._    CMP      r0,#0x1000
        0x240422c6:    d108        ..      BNE      0x240422da ; HAL_RCCEx_PeriphCLKConfig + 1802
        0x240422c8:    f1040024    ..$.    ADD      r0,r4,#0x24
        0x240422cc:    2102        .!      MOVS     r1,#2
        0x240422ce:    f001fbdf    ....    BL       RCCEx_PLL3_Config ; 0x24043a90
        0x240422d2:    2800        .(      CMP      r0,#0
        0x240422d4:    bf18        ..      IT       NE
        0x240422d6:    f04f0801    O...    MOVNE    r8,#1
        0x240422da:    f8d90028    ..(.    LDR      r0,[r9,#0x28]
        0x240422de:    f8d41080    ....    LDR      r1,[r4,#0x80]
        0x240422e2:    f4205040     .@P    BIC      r0,r0,#0x3000
        0x240422e6:    4308        .C      ORRS     r0,r0,r1
        0x240422e8:    f8c90028    ..(.    STR      r0,[r9,#0x28]
        0x240422ec:    7820         x      LDRB     r0,[r4,#0]
        0x240422ee:    06c0        ..      LSLS     r0,r0,#27
        0x240422f0:    d516        ..      BPL      0x24042320 ; HAL_RCCEx_PeriphCLKConfig + 1872
        0x240422f2:    f8d40094    ....    LDR      r0,[r4,#0x94]
        0x240422f6:    f5b07f80    ....    CMP      r0,#0x100
        0x240422fa:    d108        ..      BNE      0x2404230e ; HAL_RCCEx_PeriphCLKConfig + 1854
        0x240422fc:    f1040024    ..$.    ADD      r0,r4,#0x24
        0x24042300:    2102        .!      MOVS     r1,#2
        0x24042302:    f001fbc5    ....    BL       RCCEx_PLL3_Config ; 0x24043a90
        0x24042306:    2800        .(      CMP      r0,#0
        0x24042308:    bf18        ..      IT       NE
        0x2404230a:    f04f0801    O...    MOVNE    r8,#1
        0x2404230e:    f8d9002c    ..,.    LDR      r0,[r9,#0x2c]
        0x24042312:    f8d41094    ....    LDR      r1,[r4,#0x94]
        0x24042316:    f4207040     .@p    BIC      r0,r0,#0x300
        0x2404231a:    4308        .C      ORRS     r0,r0,r1
        0x2404231c:    f8c9002c    ..,.    STR      r0,[r9,#0x2c]
        0x24042320:    78a0        .x      LDRB     r0,[r4,#2]
        0x24042322:    0700        ..      LSLS     r0,r0,#28
        0x24042324:    d521        !.      BPL      0x2404236a ; HAL_RCCEx_PeriphCLKConfig + 1946
        0x24042326:    f8d400a0    ....    LDR      r0,[r4,#0xa0]
        0x2404232a:    f5b03f00    ...?    CMP      r0,#0x20000
        0x2404232e:    d019        ..      BEQ      0x24042364 ; HAL_RCCEx_PeriphCLKConfig + 1940
        0x24042330:    f5b03f80    ...?    CMP      r0,#0x10000
        0x24042334:    d010        ..      BEQ      0x24042358 ; HAL_RCCEx_PeriphCLKConfig + 1928
        0x24042336:    bbc0        ..      CBNZ     r0,0x240423aa ; HAL_RCCEx_PeriphCLKConfig + 2010
        0x24042338:    1d20         .      ADDS     r0,r4,#4
        0x2404233a:    2100        .!      MOVS     r1,#0
        0x2404233c:    f001fb18    ....    BL       RCCEx_PLL2_Config ; 0x24043970
        0x24042340:    4606        .F      MOV      r6,r0
        0x24042342:    b98e        ..      CBNZ     r6,0x24042368 ; HAL_RCCEx_PeriphCLKConfig + 1944
        0x24042344:    f8d9002c    ..,.    LDR      r0,[r9,#0x2c]
        0x24042348:    f8d410a0    ....    LDR      r1,[r4,#0xa0]
        0x2404234c:    f4203040     .@0    BIC      r0,r0,#0x30000
        0x24042350:    4308        .C      ORRS     r0,r0,r1
        0x24042352:    f8c9002c    ..,.    STR      r0,[r9,#0x2c]
        0x24042356:    e008        ..      B        0x2404236a ; HAL_RCCEx_PeriphCLKConfig + 1946
        0x24042358:    f1040024    ..$.    ADD      r0,r4,#0x24
        0x2404235c:    2102        .!      MOVS     r1,#2
        0x2404235e:    f001fb97    ....    BL       RCCEx_PLL3_Config ; 0x24043a90
        0x24042362:    4606        .F      MOV      r6,r0
        0x24042364:    2e00        ..      CMP      r6,#0
        0x24042366:    d0ed        ..      BEQ      0x24042344 ; HAL_RCCEx_PeriphCLKConfig + 1908
        0x24042368:    46b0        .F      MOV      r8,r6
        0x2404236a:    78a0        .x      LDRB     r0,[r4,#2]
        0x2404236c:    0740        @.      LSLS     r0,r0,#29
        0x2404236e:    d529        ).      BPL      0x240423c4 ; HAL_RCCEx_PeriphCLKConfig + 2036
        0x24042370:    f8d40084    ....    LDR      r0,[r4,#0x84]
        0x24042374:    f5b01f40    ..@.    CMP      r0,#0x300000
        0x24042378:    d021        !.      BEQ      0x240423be ; HAL_RCCEx_PeriphCLKConfig + 2030
        0x2404237a:    f5b01f00    ....    CMP      r0,#0x200000
        0x2404237e:    d018        ..      BEQ      0x240423b2 ; HAL_RCCEx_PeriphCLKConfig + 2018
        0x24042380:    f5b01f80    ....    CMP      r0,#0x100000
        0x24042384:    f04080c1    @...    BNE.W    0x2404250a ; HAL_RCCEx_PeriphCLKConfig + 2362
        0x24042388:    f8d90000    ....    LDR      r0,[r9,#0]
        0x2404238c:    f4403000    @..0    ORR      r0,r0,#0x20000
        0x24042390:    f8c90000    ....    STR      r0,[r9,#0]
        0x24042394:    b9ae        ..      CBNZ     r6,0x240423c2 ; HAL_RCCEx_PeriphCLKConfig + 2034
        0x24042396:    f8d90028    ..(.    LDR      r0,[r9,#0x28]
        0x2404239a:    f8d41084    ....    LDR      r1,[r4,#0x84]
        0x2404239e:    f4201040     .@.    BIC      r0,r0,#0x300000
        0x240423a2:    4308        .C      ORRS     r0,r0,r1
        0x240423a4:    f8c90028    ..(.    STR      r0,[r9,#0x28]
        0x240423a8:    e00c        ..      B        0x240423c4 ; HAL_RCCEx_PeriphCLKConfig + 2036
        0x240423aa:    2601        .&      MOVS     r6,#1
        0x240423ac:    2e00        ..      CMP      r6,#0
        0x240423ae:    d1db        ..      BNE      0x24042368 ; HAL_RCCEx_PeriphCLKConfig + 1944
        0x240423b0:    e7c8        ..      B        0x24042344 ; HAL_RCCEx_PeriphCLKConfig + 1908
        0x240423b2:    f1040024    ..$.    ADD      r0,r4,#0x24
        0x240423b6:    2101        .!      MOVS     r1,#1
        0x240423b8:    f001fb6a    ..j.    BL       RCCEx_PLL3_Config ; 0x24043a90
        0x240423bc:    4606        .F      MOV      r6,r0
        0x240423be:    2e00        ..      CMP      r6,#0
        0x240423c0:    d0e9        ..      BEQ      0x24042396 ; HAL_RCCEx_PeriphCLKConfig + 1990
        0x240423c2:    46b0        .F      MOV      r8,r6
        0x240423c4:    78a0        .x      LDRB     r0,[r4,#2]
        0x240423c6:    07c0        ..      LSLS     r0,r0,#31
        0x240423c8:    d01f        ..      BEQ      0x2404240a ; HAL_RCCEx_PeriphCLKConfig + 2106
        0x240423ca:    6ce0        .l      LDR      r0,[r4,#0x4c]
        0x240423cc:    f5b03f80    ...?    CMP      r0,#0x10000
        0x240423d0:    d010        ..      BEQ      0x240423f4 ; HAL_RCCEx_PeriphCLKConfig + 2084
        0x240423d2:    b9b0        ..      CBNZ     r0,0x24042402 ; HAL_RCCEx_PeriphCLKConfig + 2098
        0x240423d4:    f8d90000    ....    LDR      r0,[r9,#0]
        0x240423d8:    f4403000    @..0    ORR      r0,r0,#0x20000
        0x240423dc:    f8c90000    ....    STR      r0,[r9,#0]
        0x240423e0:    b996        ..      CBNZ     r6,0x24042408 ; HAL_RCCEx_PeriphCLKConfig + 2104
        0x240423e2:    f8d90020    .. .    LDR      r0,[r9,#0x20]
        0x240423e6:    6ce1        .l      LDR      r1,[r4,#0x4c]
        0x240423e8:    f4203080     ..0    BIC      r0,r0,#0x10000
        0x240423ec:    4308        .C      ORRS     r0,r0,r1
        0x240423ee:    f8c90020    .. .    STR      r0,[r9,#0x20]
        0x240423f2:    e00a        ..      B        0x2404240a ; HAL_RCCEx_PeriphCLKConfig + 2106
        0x240423f4:    1d20         .      ADDS     r0,r4,#4
        0x240423f6:    2102        .!      MOVS     r1,#2
        0x240423f8:    f001faba    ....    BL       RCCEx_PLL2_Config ; 0x24043970
        0x240423fc:    4606        .F      MOV      r6,r0
        0x240423fe:    b91e        ..      CBNZ     r6,0x24042408 ; HAL_RCCEx_PeriphCLKConfig + 2104
        0x24042400:    e7ef        ..      B        0x240423e2 ; HAL_RCCEx_PeriphCLKConfig + 2066
        0x24042402:    2601        .&      MOVS     r6,#1
        0x24042404:    2e00        ..      CMP      r6,#0
        0x24042406:    d0ec        ..      BEQ      0x240423e2 ; HAL_RCCEx_PeriphCLKConfig + 2066
        0x24042408:    46b0        .F      MOV      r8,r6
        0x2404240a:    78e0        .x      LDRB     r0,[r4,#3]
        0x2404240c:    0680        ..      LSLS     r0,r0,#26
        0x2404240e:    d508        ..      BPL      0x24042422 ; HAL_RCCEx_PeriphCLKConfig + 2130
        0x24042410:    f1040024    ..$.    ADD      r0,r4,#0x24
        0x24042414:    2102        .!      MOVS     r1,#2
        0x24042416:    f001fb3b    ..;.    BL       RCCEx_PLL3_Config ; 0x24043a90
        0x2404241a:    2800        .(      CMP      r0,#0
        0x2404241c:    bf18        ..      IT       NE
        0x2404241e:    f04f0801    O...    MOVNE    r8,#1
        0x24042422:    6820         h      LDR      r0,[r4,#0]
        0x24042424:    0381        ..      LSLS     r1,r0,#14
        0x24042426:    d41e        ..      BMI      0x24042466 ; HAL_RCCEx_PeriphCLKConfig + 2198
        0x24042428:    02c1        ..      LSLS     r1,r0,#11
        0x2404242a:    d434        4.      BMI      0x24042496 ; HAL_RCCEx_PeriphCLKConfig + 2246
        0x2404242c:    00c1        ..      LSLS     r1,r0,#3
        0x2404242e:    d43c        <.      BMI      0x240424aa ; HAL_RCCEx_PeriphCLKConfig + 2266
        0x24042430:    0281        ..      LSLS     r1,r0,#10
        0x24042432:    d445        E.      BMI      0x240424c0 ; HAL_RCCEx_PeriphCLKConfig + 2288
        0x24042434:    0041        A.      LSLS     r1,r0,#1
        0x24042436:    d44d        M.      BMI      0x240424d4 ; HAL_RCCEx_PeriphCLKConfig + 2308
        0x24042438:    f1b03fff    ...?    CMP      r0,#0xffffffff
        0x2404243c:    dd5a        Z.      BLE      0x240424f4 ; HAL_RCCEx_PeriphCLKConfig + 2340
        0x2404243e:    0200        ..      LSLS     r0,r0,#8
        0x24042440:    d508        ..      BPL      0x24042454 ; HAL_RCCEx_PeriphCLKConfig + 2180
        0x24042442:    f8d90028    ..(.    LDR      r0,[r9,#0x28]
        0x24042446:    f8d41088    ....    LDR      r1,[r4,#0x88]
        0x2404244a:    f4200040     .@.    BIC      r0,r0,#0xc00000
        0x2404244e:    4308        .C      ORRS     r0,r0,r1
        0x24042450:    f8c90028    ..(.    STR      r0,[r9,#0x28]
        0x24042454:    f1b80f00    ....    CMP      r8,#0
        0x24042458:    bf18        ..      IT       NE
        0x2404245a:    f04f0801    O...    MOVNE    r8,#1
        0x2404245e:    4640        @F      MOV      r0,r8
        0x24042460:    b001        ..      ADD      sp,sp,#4
        0x24042462:    e8bd83f0    ....    POP      {r4-r9,pc}
        0x24042466:    6fe1        .o      LDR      r1,[r4,#0x7c]
        0x24042468:    f06f0201    o...    MVN      r2,#1
        0x2404246c:    eb022231    ..1"    ADD      r2,r2,r1,ROR #8
        0x24042470:    2a02        .*      CMP      r2,#2
        0x24042472:    d30a        ..      BCC      0x2404248a ; HAL_RCCEx_PeriphCLKConfig + 2234
        0x24042474:    ea4f2231    O.1"    ROR      r2,r1,#8
        0x24042478:    b13a        :.      CBZ      r2,0x2404248a ; HAL_RCCEx_PeriphCLKConfig + 2234
        0x2404247a:    2a01        .*      CMP      r2,#1
        0x2404247c:    d14a        J.      BNE      0x24042514 ; HAL_RCCEx_PeriphCLKConfig + 2372
        0x2404247e:    f8d92000    ...     LDR      r2,[r9,#0]
        0x24042482:    f4423200    B..2    ORR      r2,r2,#0x20000
        0x24042486:    f8c92000    ...     STR      r2,[r9,#0]
        0x2404248a:    2e00        ..      CMP      r6,#0
        0x2404248c:    d045        E.      BEQ      0x2404251a ; HAL_RCCEx_PeriphCLKConfig + 2378
        0x2404248e:    f04f0801    O...    MOV      r8,#1
        0x24042492:    02c1        ..      LSLS     r1,r0,#11
        0x24042494:    d5ca        ..      BPL      0x2404242c ; HAL_RCCEx_PeriphCLKConfig + 2140
        0x24042496:    f8d91024    ..$.    LDR      r1,[r9,#0x24]
        0x2404249a:    6f22        "o      LDR      r2,[r4,#0x70]
        0x2404249c:    f0214100    !..A    BIC      r1,r1,#0x80000000
        0x240424a0:    4311        .C      ORRS     r1,r1,r2
        0x240424a2:    f8c91024    ..$.    STR      r1,[r9,#0x24]
        0x240424a6:    00c1        ..      LSLS     r1,r0,#3
        0x240424a8:    d5c2        ..      BPL      0x24042430 ; HAL_RCCEx_PeriphCLKConfig + 2144
        0x240424aa:    f8591c1c    Y...    LDR      r1,[r9,#-0x1c]
        0x240424ae:    f8d420b4    ...     LDR      r2,[r4,#0xb4]
        0x240424b2:    f4214180    !..A    BIC      r1,r1,#0x4000
        0x240424b6:    4311        .C      ORRS     r1,r1,r2
        0x240424b8:    f8491c1c    I...    STR      r1,[r9,#-0x1c]
        0x240424bc:    0281        ..      LSLS     r1,r0,#10
        0x240424be:    d5b9        ..      BPL      0x24042434 ; HAL_RCCEx_PeriphCLKConfig + 2148
        0x240424c0:    f8d91024    ..$.    LDR      r1,[r9,#0x24]
        0x240424c4:    6ea2        .n      LDR      r2,[r4,#0x68]
        0x240424c6:    f0217180    !..q    BIC      r1,r1,#0x1000000
        0x240424ca:    4311        .C      ORRS     r1,r1,r2
        0x240424cc:    f8c91024    ..$.    STR      r1,[r9,#0x24]
        0x240424d0:    0041        A.      LSLS     r1,r0,#1
        0x240424d2:    d5b1        ..      BPL      0x24042438 ; HAL_RCCEx_PeriphCLKConfig + 2152
        0x240424d4:    f8591c1c    Y...    LDR      r1,[r9,#-0x1c]
        0x240424d8:    f4214100    !..A    BIC      r1,r1,#0x8000
        0x240424dc:    f8491c1c    I...    STR      r1,[r9,#-0x1c]
        0x240424e0:    f8d410b8    ....    LDR      r1,[r4,#0xb8]
        0x240424e4:    f8592c1c    Y..,    LDR      r2,[r9,#-0x1c]
        0x240424e8:    4311        .C      ORRS     r1,r1,r2
        0x240424ea:    f8491c1c    I...    STR      r1,[r9,#-0x1c]
        0x240424ee:    f1b03fff    ...?    CMP      r0,#0xffffffff
        0x240424f2:    dca4        ..      BGT      0x2404243e ; HAL_RCCEx_PeriphCLKConfig + 2158
        0x240424f4:    f8d91020    .. .    LDR      r1,[r9,#0x20]
        0x240424f8:    6d22        "m      LDR      r2,[r4,#0x50]
        0x240424fa:    f0215140    !.@Q    BIC      r1,r1,#0x30000000
        0x240424fe:    4311        .C      ORRS     r1,r1,r2
        0x24042500:    f8c91020    .. .    STR      r1,[r9,#0x20]
        0x24042504:    0200        ..      LSLS     r0,r0,#8
        0x24042506:    d5a5        ..      BPL      0x24042454 ; HAL_RCCEx_PeriphCLKConfig + 2180
        0x24042508:    e79b        ..      B        0x24042442 ; HAL_RCCEx_PeriphCLKConfig + 2162
        0x2404250a:    2601        .&      MOVS     r6,#1
        0x2404250c:    2e00        ..      CMP      r6,#0
        0x2404250e:    f47faf58    ..X.    BNE      0x240423c2 ; HAL_RCCEx_PeriphCLKConfig + 2034
        0x24042512:    e740        @.      B        0x24042396 ; HAL_RCCEx_PeriphCLKConfig + 1990
        0x24042514:    2601        .&      MOVS     r6,#1
        0x24042516:    2e00        ..      CMP      r6,#0
        0x24042518:    d1b9        ..      BNE      0x2404248e ; HAL_RCCEx_PeriphCLKConfig + 2238
        0x2404251a:    f8d92028    ..(     LDR      r2,[r9,#0x28]
        0x2404251e:    f4227240    ".@r    BIC      r2,r2,#0x300
        0x24042522:    4311        .C      ORRS     r1,r1,r2
        0x24042524:    f8c91028    ..(.    STR      r1,[r9,#0x28]
        0x24042528:    02c1        ..      LSLS     r1,r0,#11
        0x2404252a:    f57faf7f    ....    BPL      0x2404242c ; HAL_RCCEx_PeriphCLKConfig + 2140
        0x2404252e:    e7b2        ..      B        0x24042496 ; HAL_RCCEx_PeriphCLKConfig + 2246
    HAL_RCC_ClockConfig
        0x24042530:    e92d43f0    -..C    PUSH     {r4-r9,lr}
        0x24042534:    b081        ..      SUB      sp,sp,#4
        0x24042536:    2800        .(      CMP      r0,#0
        0x24042538:    f00080f4    ....    BEQ.W    0x24042724 ; HAL_RCC_ClockConfig + 500
        0x2404253c:    f2420800    B...    MOVW     r8,#0x2000
        0x24042540:    4604        .F      MOV      r4,r0
        0x24042542:    f2c52800    ...(    MOVT     r8,#0x5200
        0x24042546:    4689        .F      MOV      r9,r1
        0x24042548:    f8d80000    ....    LDR      r0,[r8,#0]
        0x2404254c:    f000000f    ....    AND      r0,r0,#0xf
        0x24042550:    4288        .B      CMP      r0,r1
        0x24042552:    d20e        ..      BCS      0x24042572 ; HAL_RCC_ClockConfig + 66
        0x24042554:    f8d80000    ....    LDR      r0,[r8,#0]
        0x24042558:    f020000f     ...    BIC      r0,r0,#0xf
        0x2404255c:    ea400009    @...    ORR      r0,r0,r9
        0x24042560:    f8c80000    ....    STR      r0,[r8,#0]
        0x24042564:    f8d80000    ....    LDR      r0,[r8,#0]
        0x24042568:    f000000f    ....    AND      r0,r0,#0xf
        0x2404256c:    4548        HE      CMP      r0,r9
        0x2404256e:    f04080d9    @...    BNE.W    0x24042724 ; HAL_RCC_ClockConfig + 500
        0x24042572:    6820         h      LDR      r0,[r4,#0]
        0x24042574:    f2444718    D..G    MOV      r7,#0x4418
        0x24042578:    0741        A.      LSLS     r1,r0,#29
        0x2404257a:    f6c50702    ....    MOVT     r7,#0x5802
        0x2404257e:    d50a        ..      BPL      0x24042596 ; HAL_RCC_ClockConfig + 102
        0x24042580:    6921        !i      LDR      r1,[r4,#0x10]
        0x24042582:    683a        :h      LDR      r2,[r7,#0]
        0x24042584:    f0020270    ..p.    AND      r2,r2,#0x70
        0x24042588:    4291        .B      CMP      r1,r2
        0x2404258a:    d904        ..      BLS      0x24042596 ; HAL_RCC_ClockConfig + 102
        0x2404258c:    683a        :h      LDR      r2,[r7,#0]
        0x2404258e:    f0220270    ".p.    BIC      r2,r2,#0x70
        0x24042592:    4311        .C      ORRS     r1,r1,r2
        0x24042594:    6039        9`      STR      r1,[r7,#0]
        0x24042596:    0701        ..      LSLS     r1,r0,#28
        0x24042598:    d50a        ..      BPL      0x240425b0 ; HAL_RCC_ClockConfig + 128
        0x2404259a:    6961        ai      LDR      r1,[r4,#0x14]
        0x2404259c:    687a        zh      LDR      r2,[r7,#4]
        0x2404259e:    f0020270    ..p.    AND      r2,r2,#0x70
        0x240425a2:    4291        .B      CMP      r1,r2
        0x240425a4:    d904        ..      BLS      0x240425b0 ; HAL_RCC_ClockConfig + 128
        0x240425a6:    687a        zh      LDR      r2,[r7,#4]
        0x240425a8:    f0220270    ".p.    BIC      r2,r2,#0x70
        0x240425ac:    4311        .C      ORRS     r1,r1,r2
        0x240425ae:    6079        y`      STR      r1,[r7,#4]
        0x240425b0:    06c1        ..      LSLS     r1,r0,#27
        0x240425b2:    d50a        ..      BPL      0x240425ca ; HAL_RCC_ClockConfig + 154
        0x240425b4:    69a1        .i      LDR      r1,[r4,#0x18]
        0x240425b6:    687a        zh      LDR      r2,[r7,#4]
        0x240425b8:    f40262e0    ...b    AND      r2,r2,#0x700
        0x240425bc:    4291        .B      CMP      r1,r2
        0x240425be:    d904        ..      BLS      0x240425ca ; HAL_RCC_ClockConfig + 154
        0x240425c0:    687a        zh      LDR      r2,[r7,#4]
        0x240425c2:    f42262e0    "..b    BIC      r2,r2,#0x700
        0x240425c6:    4311        .C      ORRS     r1,r1,r2
        0x240425c8:    6079        y`      STR      r1,[r7,#4]
        0x240425ca:    0681        ..      LSLS     r1,r0,#26
        0x240425cc:    d50a        ..      BPL      0x240425e4 ; HAL_RCC_ClockConfig + 180
        0x240425ce:    69e1        .i      LDR      r1,[r4,#0x1c]
        0x240425d0:    68ba        .h      LDR      r2,[r7,#8]
        0x240425d2:    f0020270    ..p.    AND      r2,r2,#0x70
        0x240425d6:    4291        .B      CMP      r1,r2
        0x240425d8:    d904        ..      BLS      0x240425e4 ; HAL_RCC_ClockConfig + 180
        0x240425da:    68ba        .h      LDR      r2,[r7,#8]
        0x240425dc:    f0220270    ".p.    BIC      r2,r2,#0x70
        0x240425e0:    4311        .C      ORRS     r1,r1,r2
        0x240425e2:    60b9        .`      STR      r1,[r7,#8]
        0x240425e4:    0781        ..      LSLS     r1,r0,#30
        0x240425e6:    d50a        ..      BPL      0x240425fe ; HAL_RCC_ClockConfig + 206
        0x240425e8:    68e1        .h      LDR      r1,[r4,#0xc]
        0x240425ea:    683a        :h      LDR      r2,[r7,#0]
        0x240425ec:    f002020f    ....    AND      r2,r2,#0xf
        0x240425f0:    4291        .B      CMP      r1,r2
        0x240425f2:    d904        ..      BLS      0x240425fe ; HAL_RCC_ClockConfig + 206
        0x240425f4:    683a        :h      LDR      r2,[r7,#0]
        0x240425f6:    f022020f    "...    BIC      r2,r2,#0xf
        0x240425fa:    4311        .C      ORRS     r1,r1,r2
        0x240425fc:    6039        9`      STR      r1,[r7,#0]
        0x240425fe:    07c0        ..      LSLS     r0,r0,#31
        0x24042600:    d17e        ~.      BNE      0x24042700 ; HAL_RCC_ClockConfig + 464
        0x24042602:    6820         h      LDR      r0,[r4,#0]
        0x24042604:    0781        ..      LSLS     r1,r0,#30
        0x24042606:    d50a        ..      BPL      0x2404261e ; HAL_RCC_ClockConfig + 238
        0x24042608:    68e1        .h      LDR      r1,[r4,#0xc]
        0x2404260a:    683a        :h      LDR      r2,[r7,#0]
        0x2404260c:    f002020f    ....    AND      r2,r2,#0xf
        0x24042610:    4291        .B      CMP      r1,r2
        0x24042612:    d204        ..      BCS      0x2404261e ; HAL_RCC_ClockConfig + 238
        0x24042614:    683a        :h      LDR      r2,[r7,#0]
        0x24042616:    f022020f    "...    BIC      r2,r2,#0xf
        0x2404261a:    4311        .C      ORRS     r1,r1,r2
        0x2404261c:    6039        9`      STR      r1,[r7,#0]
        0x2404261e:    f8d81000    ....    LDR      r1,[r8,#0]
        0x24042622:    f001010f    ....    AND      r1,r1,#0xf
        0x24042626:    4549        IE      CMP      r1,r9
        0x24042628:    d90d        ..      BLS      0x24042646 ; HAL_RCC_ClockConfig + 278
        0x2404262a:    f8d81000    ....    LDR      r1,[r8,#0]
        0x2404262e:    f021010f    !...    BIC      r1,r1,#0xf
        0x24042632:    ea410109    A...    ORR      r1,r1,r9
        0x24042636:    f8c81000    ....    STR      r1,[r8,#0]
        0x2404263a:    f8d81000    ....    LDR      r1,[r8,#0]
        0x2404263e:    f001010f    ....    AND      r1,r1,#0xf
        0x24042642:    4549        IE      CMP      r1,r9
        0x24042644:    d16e        n.      BNE      0x24042724 ; HAL_RCC_ClockConfig + 500
        0x24042646:    0741        A.      LSLS     r1,r0,#29
        0x24042648:    d50a        ..      BPL      0x24042660 ; HAL_RCC_ClockConfig + 304
        0x2404264a:    6921        !i      LDR      r1,[r4,#0x10]
        0x2404264c:    683a        :h      LDR      r2,[r7,#0]
        0x2404264e:    f0020270    ..p.    AND      r2,r2,#0x70
        0x24042652:    4291        .B      CMP      r1,r2
        0x24042654:    d204        ..      BCS      0x24042660 ; HAL_RCC_ClockConfig + 304
        0x24042656:    683a        :h      LDR      r2,[r7,#0]
        0x24042658:    f0220270    ".p.    BIC      r2,r2,#0x70
        0x2404265c:    4311        .C      ORRS     r1,r1,r2
        0x2404265e:    6039        9`      STR      r1,[r7,#0]
        0x24042660:    0701        ..      LSLS     r1,r0,#28
        0x24042662:    d50a        ..      BPL      0x2404267a ; HAL_RCC_ClockConfig + 330
        0x24042664:    6961        ai      LDR      r1,[r4,#0x14]
        0x24042666:    687a        zh      LDR      r2,[r7,#4]
        0x24042668:    f0020270    ..p.    AND      r2,r2,#0x70
        0x2404266c:    4291        .B      CMP      r1,r2
        0x2404266e:    d204        ..      BCS      0x2404267a ; HAL_RCC_ClockConfig + 330
        0x24042670:    687a        zh      LDR      r2,[r7,#4]
        0x24042672:    f0220270    ".p.    BIC      r2,r2,#0x70
        0x24042676:    4311        .C      ORRS     r1,r1,r2
        0x24042678:    6079        y`      STR      r1,[r7,#4]
        0x2404267a:    06c1        ..      LSLS     r1,r0,#27
        0x2404267c:    d50a        ..      BPL      0x24042694 ; HAL_RCC_ClockConfig + 356
        0x2404267e:    69a1        .i      LDR      r1,[r4,#0x18]
        0x24042680:    687a        zh      LDR      r2,[r7,#4]
        0x24042682:    f40262e0    ...b    AND      r2,r2,#0x700
        0x24042686:    4291        .B      CMP      r1,r2
        0x24042688:    d204        ..      BCS      0x24042694 ; HAL_RCC_ClockConfig + 356
        0x2404268a:    687a        zh      LDR      r2,[r7,#4]
        0x2404268c:    f42262e0    "..b    BIC      r2,r2,#0x700
        0x24042690:    4311        .C      ORRS     r1,r1,r2
        0x24042692:    6079        y`      STR      r1,[r7,#4]
        0x24042694:    0680        ..      LSLS     r0,r0,#26
        0x24042696:    d50a        ..      BPL      0x240426ae ; HAL_RCC_ClockConfig + 382
        0x24042698:    69e0        .i      LDR      r0,[r4,#0x1c]
        0x2404269a:    68b9        .h      LDR      r1,[r7,#8]
        0x2404269c:    f0010170    ..p.    AND      r1,r1,#0x70
        0x240426a0:    4288        .B      CMP      r0,r1
        0x240426a2:    d204        ..      BCS      0x240426ae ; HAL_RCC_ClockConfig + 382
        0x240426a4:    68b9        .h      LDR      r1,[r7,#8]
        0x240426a6:    f0210170    !.p.    BIC      r1,r1,#0x70
        0x240426aa:    4308        .C      ORRS     r0,r0,r1
        0x240426ac:    60b8        .`      STR      r0,[r7,#8]
        0x240426ae:    f000f99b    ....    BL       HAL_RCC_GetSysClockFreq ; 0x240429e8
        0x240426b2:    6839        9h      LDR      r1,[r7,#0]
        0x240426b4:    f644029e    D...    MOV      r2,#0x489e
        0x240426b8:    f2c24204    ...B    MOVT     r2,#0x2404
        0x240426bc:    683b        ;h      LDR      r3,[r7,#0]
        0x240426be:    f3c12103    ...!    UBFX     r1,r1,#8,#4
        0x240426c2:    f003030f    ....    AND      r3,r3,#0xf
        0x240426c6:    5c51        Q\      LDRB     r1,[r2,r1]
        0x240426c8:    5cd2        .\      LDRB     r2,[r2,r3]
        0x240426ca:    f001011f    ....    AND      r1,r1,#0x1f
        0x240426ce:    40c8        .@      LSRS     r0,r0,r1
        0x240426d0:    f002011f    ....    AND      r1,r2,#0x1f
        0x240426d4:    f64402ec    D...    MOV      r2,#0x48ec
        0x240426d8:    fa20f101     ...    LSR      r1,r0,r1
        0x240426dc:    f2c24204    ...B    MOVT     r2,#0x2404
        0x240426e0:    6011        .`      STR      r1,[r2,#0]
        0x240426e2:    f64401e8    D...    MOV      r1,#0x48e8
        0x240426e6:    f64402f4    D...    MOV      r2,#0x48f4
        0x240426ea:    f2c24104    ...A    MOVT     r1,#0x2404
        0x240426ee:    f2c24204    ...B    MOVT     r2,#0x2404
        0x240426f2:    6008        .`      STR      r0,[r1,#0]
        0x240426f4:    6810        .h      LDR      r0,[r2,#0]
        0x240426f6:    f7fff8b3    ....    BL       HAL_InitTick ; 0x24041860
        0x240426fa:    b001        ..      ADD      sp,sp,#4
        0x240426fc:    e8bd83f0    ....    POP      {r4-r9,pc}
        0x24042700:    6838        8h      LDR      r0,[r7,#0]
        0x24042702:    f4206170     .pa    BIC      r1,r0,#0xf00
        0x24042706:    e9d40201    ....    LDRD     r0,r2,[r4,#4]
        0x2404270a:    2801        .(      CMP      r0,#1
        0x2404270c:    ea410102    A...    ORR      r1,r1,r2
        0x24042710:    6039        9`      STR      r1,[r7,#0]
        0x24042712:    d00b        ..      BEQ      0x2404272c ; HAL_RCC_ClockConfig + 508
        0x24042714:    2803        .(      CMP      r0,#3
        0x24042716:    d02b        +.      BEQ      0x24042770 ; HAL_RCC_ClockConfig + 576
        0x24042718:    2802        .(      CMP      r0,#2
        0x2404271a:    d12e        ..      BNE      0x2404277a ; HAL_RCC_ClockConfig + 586
        0x2404271c:    f8571c18    W...    LDR      r1,[r7,#-0x18]
        0x24042720:    0389        ..      LSLS     r1,r1,#14
        0x24042722:    d407        ..      BMI      0x24042734 ; HAL_RCC_ClockConfig + 516
        0x24042724:    2001        .       MOVS     r0,#1
        0x24042726:    b001        ..      ADD      sp,sp,#4
        0x24042728:    e8bd83f0    ....    POP      {r4-r9,pc}
        0x2404272c:    f8571c18    W...    LDR      r1,[r7,#-0x18]
        0x24042730:    05c9        ..      LSLS     r1,r1,#23
        0x24042732:    d5f7        ..      BPL      0x24042724 ; HAL_RCC_ClockConfig + 500
        0x24042734:    f8571c08    W...    LDR      r1,[r7,#-8]
        0x24042738:    f0210107    !...    BIC      r1,r1,#7
        0x2404273c:    4308        .C      ORRS     r0,r0,r1
        0x2404273e:    f8470c08    G...    STR      r0,[r7,#-8]
        0x24042742:    f7fff841    ..A.    BL       HAL_GetTick ; 0x240417c8
        0x24042746:    4606        .F      MOV      r6,r0
        0x24042748:    f2413588    A..5    MOV      r5,#0x1388
        0x2404274c:    f8570c08    W...    LDR      r0,[r7,#-8]
        0x24042750:    6861        ah      LDR      r1,[r4,#4]
        0x24042752:    f0000038    ..8.    AND      r0,r0,#0x38
        0x24042756:    ebb00fc1    ....    CMP      r0,r1,LSL #3
        0x2404275a:    f43faf52    ?.R.    BEQ      0x24042602 ; HAL_RCC_ClockConfig + 210
        0x2404275e:    f7fff833    ..3.    BL       HAL_GetTick ; 0x240417c8
        0x24042762:    1b80        ..      SUBS     r0,r0,r6
        0x24042764:    42a8        .B      CMP      r0,r5
        0x24042766:    d9f1        ..      BLS      0x2404274c ; HAL_RCC_ClockConfig + 540
        0x24042768:    2003        .       MOVS     r0,#3
        0x2404276a:    b001        ..      ADD      sp,sp,#4
        0x2404276c:    e8bd83f0    ....    POP      {r4-r9,pc}
        0x24042770:    f8571c18    W...    LDR      r1,[r7,#-0x18]
        0x24042774:    0189        ..      LSLS     r1,r1,#6
        0x24042776:    d5d5        ..      BPL      0x24042724 ; HAL_RCC_ClockConfig + 500
        0x24042778:    e7dc        ..      B        0x24042734 ; HAL_RCC_ClockConfig + 516
        0x2404277a:    f8571c18    W...    LDR      r1,[r7,#-0x18]
        0x2404277e:    0749        I.      LSLS     r1,r1,#29
        0x24042780:    d5d0        ..      BPL      0x24042724 ; HAL_RCC_ClockConfig + 500
        0x24042782:    e7d7        ..      B        0x24042734 ; HAL_RCC_ClockConfig + 516
        0x24042784:    0000        ..      MOVS     r0,r0
        0x24042786:    0000        ..      MOVS     r0,r0
    HAL_RCC_DeInit
        0x24042788:    e92d41f0    -..A    PUSH     {r4-r8,lr}
        0x2404278c:    f2420800    B...    MOVW     r8,#0x2000
        0x24042790:    f2c52800    ...(    MOVT     r8,#0x5200
        0x24042794:    f8d80000    ....    LDR      r0,[r8,#0]
        0x24042798:    f000000f    ....    AND      r0,r0,#0xf
        0x2404279c:    2806        .(      CMP      r0,#6
        0x2404279e:    d80c        ..      BHI      0x240427ba ; HAL_RCC_DeInit + 50
        0x240427a0:    f8d80000    ....    LDR      r0,[r8,#0]
        0x240427a4:    2107        .!      MOVS     r1,#7
        0x240427a6:    f3610003    a...    BFI      r0,r1,#0,#4
        0x240427aa:    f8c80000    ....    STR      r0,[r8,#0]
        0x240427ae:    f8d80000    ....    LDR      r0,[r8,#0]
        0x240427b2:    f000000f    ....    AND      r0,r0,#0xf
        0x240427b6:    2807        .(      CMP      r0,#7
        0x240427b8:    d131        1.      BNE      0x2404281e ; HAL_RCC_DeInit + 150
        0x240427ba:    f2444700    D..G    MOVW     r7,#0x4400
        0x240427be:    f6c50702    ....    MOVT     r7,#0x5802
        0x240427c2:    f7fff801    ....    BL       HAL_GetTick ; 0x240417c8
        0x240427c6:    4604        .F      MOV      r4,r0
        0x240427c8:    6838        8h      LDR      r0,[r7,#0]
        0x240427ca:    f0400001    @...    ORR      r0,r0,#1
        0x240427ce:    6038        8`      STR      r0,[r7,#0]
        0x240427d0:    6838        8h      LDR      r0,[r7,#0]
        0x240427d2:    0740        @.      LSLS     r0,r0,#29
        0x240427d4:    d407        ..      BMI      0x240427e6 ; HAL_RCC_DeInit + 94
        0x240427d6:    f7fefff7    ....    BL       HAL_GetTick ; 0x240417c8
        0x240427da:    1b00        ..      SUBS     r0,r0,r4
        0x240427dc:    2802        .(      CMP      r0,#2
        0x240427de:    d9f7        ..      BLS      0x240427d0 ; HAL_RCC_DeInit + 72
        0x240427e0:    2003        .       MOVS     r0,#3
        0x240427e2:    e8bd81f0    ....    POP      {r4-r8,pc}
        0x240427e6:    6878        xh      LDR      r0,[r7,#4]
        0x240427e8:    f2490100    I...    MOVW     r1,#0x9000
        0x240427ec:    f0404080    @..@    ORR      r0,r0,#0x40000000
        0x240427f0:    6078        x`      STR      r0,[r7,#4]
        0x240427f2:    2000        .       MOVS     r0,#0
        0x240427f4:    6138        8a      STR      r0,[r7,#0x10]
        0x240427f6:    f64400e8    D...    MOV      r0,#0x48e8
        0x240427fa:    f2c031d0    ...1    MOVT     r1,#0x3d0
        0x240427fe:    f2c24004    ...@    MOVT     r0,#0x2404
        0x24042802:    f64402f4    D...    MOV      r2,#0x48f4
        0x24042806:    f2c24204    ...B    MOVT     r2,#0x2404
        0x2404280a:    6001        .`      STR      r1,[r0,#0]
        0x2404280c:    f64400ec    D...    MOV      r0,#0x48ec
        0x24042810:    f2c24004    ...@    MOVT     r0,#0x2404
        0x24042814:    6001        .`      STR      r1,[r0,#0]
        0x24042816:    6810        .h      LDR      r0,[r2,#0]
        0x24042818:    f7fff822    ..".    BL       HAL_InitTick ; 0x24041860
        0x2404281c:    b110        ..      CBZ      r0,0x24042824 ; HAL_RCC_DeInit + 156
        0x2404281e:    2001        .       MOVS     r0,#1
        0x24042820:    e8bd81f0    ....    POP      {r4-r8,pc}
        0x24042824:    f7feffd0    ....    BL       HAL_GetTick ; 0x240417c8
        0x24042828:    4604        .F      MOV      r4,r0
        0x2404282a:    f2413688    A..6    MOV      r6,#0x1388
        0x2404282e:    bf00        ..      NOP      
        0x24042830:    693d        =i      LDR      r5,[r7,#0x10]
        0x24042832:    f7feffc9    ....    BL       HAL_GetTick ; 0x240417c8
        0x24042836:    f0150f38    ..8.    TST      r5,#0x38
        0x2404283a:    4605        .F      MOV      r5,r0
        0x2404283c:    d005        ..      BEQ      0x2404284a ; HAL_RCC_DeInit + 194
        0x2404283e:    1b28        (.      SUBS     r0,r5,r4
        0x24042840:    42b0        .B      CMP      r0,r6
        0x24042842:    d9f5        ..      BLS      0x24042830 ; HAL_RCC_DeInit + 168
        0x24042844:    2003        .       MOVS     r0,#3
        0x24042846:    e8bd81f0    ....    POP      {r4-r8,pc}
        0x2404284a:    f64e5145    N.EQ    MOV      r1,#0xed45
        0x2404284e:    6838        8h      LDR      r0,[r7,#0]
        0x24042850:    f6cf71f6    ...q    MOVT     r1,#0xfff6
        0x24042854:    4008        .@      ANDS     r0,r0,r1
        0x24042856:    6038        8`      STR      r0,[r7,#0]
        0x24042858:    683c        <h      LDR      r4,[r7,#0]
        0x2404285a:    f7feffb5    ....    BL       HAL_GetTick ; 0x240417c8
        0x2404285e:    03a1        ..      LSLS     r1,r4,#14
        0x24042860:    4604        .F      MOV      r4,r0
        0x24042862:    d505        ..      BPL      0x24042870 ; HAL_RCC_DeInit + 232
        0x24042864:    1b60        `.      SUBS     r0,r4,r5
        0x24042866:    2864        d(      CMP      r0,#0x64
        0x24042868:    d9f6        ..      BLS      0x24042858 ; HAL_RCC_DeInit + 208
        0x2404286a:    2003        .       MOVS     r0,#3
        0x2404286c:    e8bd81f0    ....    POP      {r4-r8,pc}
        0x24042870:    6838        8h      LDR      r0,[r7,#0]
        0x24042872:    f0207080     ..p    BIC      r0,r0,#0x1000000
        0x24042876:    6038        8`      STR      r0,[r7,#0]
        0x24042878:    683d        =h      LDR      r5,[r7,#0]
        0x2404287a:    f7feffa5    ....    BL       HAL_GetTick ; 0x240417c8
        0x2404287e:    01a9        ..      LSLS     r1,r5,#6
        0x24042880:    4605        .F      MOV      r5,r0
        0x24042882:    d505        ..      BPL      0x24042890 ; HAL_RCC_DeInit + 264
        0x24042884:    1b28        (.      SUBS     r0,r5,r4
        0x24042886:    2802        .(      CMP      r0,#2
        0x24042888:    f04f0003    O...    MOV      r0,#3
        0x2404288c:    d9f4        ..      BLS      0x24042878 ; HAL_RCC_DeInit + 240
        0x2404288e:    e056        V.      B        0x2404293e ; HAL_RCC_DeInit + 438
        0x24042890:    6838        8h      LDR      r0,[r7,#0]
        0x24042892:    f0206080     ..`    BIC      r0,r0,#0x4000000
        0x24042896:    6038        8`      STR      r0,[r7,#0]
        0x24042898:    683c        <h      LDR      r4,[r7,#0]
        0x2404289a:    f7feff95    ....    BL       HAL_GetTick ; 0x240417c8
        0x2404289e:    0121        !.      LSLS     r1,r4,#4
        0x240428a0:    4604        .F      MOV      r4,r0
        0x240428a2:    d505        ..      BPL      0x240428b0 ; HAL_RCC_DeInit + 296
        0x240428a4:    1b60        `.      SUBS     r0,r4,r5
        0x240428a6:    2802        .(      CMP      r0,#2
        0x240428a8:    f04f0003    O...    MOV      r0,#3
        0x240428ac:    d9f4        ..      BLS      0x24042898 ; HAL_RCC_DeInit + 272
        0x240428ae:    e046        F.      B        0x2404293e ; HAL_RCC_DeInit + 438
        0x240428b0:    6838        8h      LDR      r0,[r7,#0]
        0x240428b2:    f0205080     ..P    BIC      r0,r0,#0x10000000
        0x240428b6:    6038        8`      STR      r0,[r7,#0]
        0x240428b8:    6838        8h      LDR      r0,[r7,#0]
        0x240428ba:    0080        ..      LSLS     r0,r0,#2
        0x240428bc:    d507        ..      BPL      0x240428ce ; HAL_RCC_DeInit + 326
        0x240428be:    f7feff83    ....    BL       HAL_GetTick ; 0x240417c8
        0x240428c2:    1b00        ..      SUBS     r0,r0,r4
        0x240428c4:    2802        .(      CMP      r0,#2
        0x240428c6:    f04f0003    O...    MOV      r0,#3
        0x240428ca:    d9f5        ..      BLS      0x240428b8 ; HAL_RCC_DeInit + 304
        0x240428cc:    e037        7.      B        0x2404293e ; HAL_RCC_DeInit + 438
        0x240428ce:    f2402100    @..!    MOVW     r1,#0x200
        0x240428d2:    2000        .       MOVS     r0,#0
        0x240428d4:    61b8        .a      STR      r0,[r7,#0x18]
        0x240428d6:    f2c02102    ...!    MOVT     r1,#0x202
        0x240428da:    61f8        .a      STR      r0,[r7,#0x1c]
        0x240428dc:    6238        8b      STR      r0,[r7,#0x20]
        0x240428de:    62b9        .b      STR      r1,[r7,#0x28]
        0x240428e0:    2100        .!      MOVS     r1,#0
        0x240428e2:    f2c011ff    ....    MOVT     r1,#0x1ff
        0x240428e6:    62f9        .b      STR      r1,[r7,#0x2c]
        0x240428e8:    f2402180    @..!    MOVW     r1,#0x280
        0x240428ec:    f2c01101    ....    MOVT     r1,#0x101
        0x240428f0:    6339        9c      STR      r1,[r7,#0x30]
        0x240428f2:    6378        xc      STR      r0,[r7,#0x34]
        0x240428f4:    63b9        .c      STR      r1,[r7,#0x38]
        0x240428f6:    63f8        .c      STR      r0,[r7,#0x3c]
        0x240428f8:    6439        9d      STR      r1,[r7,#0x40]
        0x240428fa:    6478        xd      STR      r0,[r7,#0x44]
        0x240428fc:    6839        9h      LDR      r1,[r7,#0]
        0x240428fe:    f4212180    !..!    BIC      r1,r1,#0x40000
        0x24042902:    6039        9`      STR      r1,[r7,#0]
        0x24042904:    6638        8f      STR      r0,[r7,#0x60]
        0x24042906:    f04f30ff    O..0    MOV      r0,#0xffffffff
        0x2404290a:    66b8        .f      STR      r0,[r7,#0x68]
        0x2404290c:    f8d700d0    ....    LDR      r0,[r7,#0xd0]
        0x24042910:    f4403080    @..0    ORR      r0,r0,#0x10000
        0x24042914:    f8c700d0    ....    STR      r0,[r7,#0xd0]
        0x24042918:    f8d80000    ....    LDR      r0,[r8,#0]
        0x2404291c:    0700        ..      LSLS     r0,r0,#28
        0x2404291e:    d50d        ..      BPL      0x2404293c ; HAL_RCC_DeInit + 436
        0x24042920:    f8d80000    ....    LDR      r0,[r8,#0]
        0x24042924:    2107        .!      MOVS     r1,#7
        0x24042926:    f3610003    a...    BFI      r0,r1,#0,#4
        0x2404292a:    f8c80000    ....    STR      r0,[r8,#0]
        0x2404292e:    f8d80000    ....    LDR      r0,[r8,#0]
        0x24042932:    f000000f    ....    AND      r0,r0,#0xf
        0x24042936:    2807        .(      CMP      r0,#7
        0x24042938:    f47faf71    ..q.    BNE      0x2404281e ; HAL_RCC_DeInit + 150
        0x2404293c:    2000        .       MOVS     r0,#0
        0x2404293e:    e8bd81f0    ....    POP      {r4-r8,pc}
        0x24042942:    0000        ..      MOVS     r0,r0
        0x24042944:    0000        ..      MOVS     r0,r0
        0x24042946:    0000        ..      MOVS     r0,r0
    HAL_RCC_GetHCLKFreq
        0x24042948:    b580        ..      PUSH     {r7,lr}
        0x2404294a:    f000f84d    ..M.    BL       HAL_RCC_GetSysClockFreq ; 0x240429e8
        0x2404294e:    f2444118    D..A    MOV      r1,#0x4418
        0x24042952:    f644039e    D...    MOV      r3,#0x489e
        0x24042956:    f6c50102    ....    MOVT     r1,#0x5802
        0x2404295a:    f2c24304    ...C    MOVT     r3,#0x2404
        0x2404295e:    680a        .h      LDR      r2,[r1,#0]
        0x24042960:    6809        .h      LDR      r1,[r1,#0]
        0x24042962:    f001010f    ....    AND      r1,r1,#0xf
        0x24042966:    f3c22203    ..."    UBFX     r2,r2,#8,#4
        0x2404296a:    5c59        Y\      LDRB     r1,[r3,r1]
        0x2404296c:    5c9a        .\      LDRB     r2,[r3,r2]
        0x2404296e:    f002021f    ....    AND      r2,r2,#0x1f
        0x24042972:    fa20f202     ...    LSR      r2,r0,r2
        0x24042976:    f001001f    ....    AND      r0,r1,#0x1f
        0x2404297a:    f64401ec    D...    MOV      r1,#0x48ec
        0x2404297e:    fa22f000    "...    LSR      r0,r2,r0
        0x24042982:    f2c24104    ...A    MOVT     r1,#0x2404
        0x24042986:    6008        .`      STR      r0,[r1,#0]
        0x24042988:    f64401e8    D...    MOV      r1,#0x48e8
        0x2404298c:    f2c24104    ...A    MOVT     r1,#0x2404
        0x24042990:    600a        .`      STR      r2,[r1,#0]
        0x24042992:    bd80        ..      POP      {r7,pc}
        0x24042994:    0000        ..      MOVS     r0,r0
        0x24042996:    0000        ..      MOVS     r0,r0
    HAL_RCC_GetPCLK1Freq
        0x24042998:    b580        ..      PUSH     {r7,lr}
        0x2404299a:    f7ffffd5    ....    BL       HAL_RCC_GetHCLKFreq ; 0x24042948
        0x2404299e:    f244411c    D..A    MOV      r1,#0x441c
        0x240429a2:    f644029e    D...    MOV      r2,#0x489e
        0x240429a6:    f6c50102    ....    MOVT     r1,#0x5802
        0x240429aa:    f2c24204    ...B    MOVT     r2,#0x2404
        0x240429ae:    6809        .h      LDR      r1,[r1,#0]
        0x240429b0:    f3c11102    ....    UBFX     r1,r1,#4,#3
        0x240429b4:    5c51        Q\      LDRB     r1,[r2,r1]
        0x240429b6:    f001011f    ....    AND      r1,r1,#0x1f
        0x240429ba:    40c8        .@      LSRS     r0,r0,r1
        0x240429bc:    bd80        ..      POP      {r7,pc}
        0x240429be:    0000        ..      MOVS     r0,r0
    HAL_RCC_GetPCLK2Freq
        0x240429c0:    b580        ..      PUSH     {r7,lr}
        0x240429c2:    f7ffffc1    ....    BL       HAL_RCC_GetHCLKFreq ; 0x24042948
        0x240429c6:    f244411c    D..A    MOV      r1,#0x441c
        0x240429ca:    f644029e    D...    MOV      r2,#0x489e
        0x240429ce:    f6c50102    ....    MOVT     r1,#0x5802
        0x240429d2:    f2c24204    ...B    MOVT     r2,#0x2404
        0x240429d6:    6809        .h      LDR      r1,[r1,#0]
        0x240429d8:    f3c12102    ...!    UBFX     r1,r1,#8,#3
        0x240429dc:    5c51        Q\      LDRB     r1,[r2,r1]
        0x240429de:    f001011f    ....    AND      r1,r1,#0x1f
        0x240429e2:    40c8        .@      LSRS     r0,r0,r1
        0x240429e4:    bd80        ..      POP      {r7,pc}
        0x240429e6:    0000        ..      MOVS     r0,r0
    HAL_RCC_GetSysClockFreq
        0x240429e8:    f2444100    D..A    MOVW     r1,#0x4400
        0x240429ec:    f6c50102    ....    MOVT     r1,#0x5802
        0x240429f0:    6908        .i      LDR      r0,[r1,#0x10]
        0x240429f2:    f3c000c2    ....    UBFX     r0,r0,#3,#3
        0x240429f6:    2803        .(      CMP      r0,#3
        0x240429f8:    d00f        ..      BEQ      0x24042a1a ; HAL_RCC_GetSysClockFreq + 50
        0x240429fa:    2802        .(      CMP      r0,#2
        0x240429fc:    d02a        *.      BEQ      0x24042a54 ; HAL_RCC_GetSysClockFreq + 108
        0x240429fe:    bb70        p.      CBNZ     r0,0x24042a5e ; HAL_RCC_GetSysClockFreq + 118
        0x24042a00:    6808        .h      LDR      r0,[r1,#0]
        0x24042a02:    0680        ..      LSLS     r0,r0,#26
        0x24042a04:    f2490000    I...    MOVW     r0,#0x9000
        0x24042a08:    f2c030d0    ...0    MOVT     r0,#0x3d0
        0x24042a0c:    bf58        X.      IT       PL
        0x24042a0e:    4770        pG      BXPL     lr
        0x24042a10:    6809        .h      LDR      r1,[r1,#0]
        0x24042a12:    f3c101c1    ....    UBFX     r1,r1,#3,#2
        0x24042a16:    40c8        .@      LSRS     r0,r0,r1
        0x24042a18:    4770        pG      BX       lr
        0x24042a1a:    6a8a        .j      LDR      r2,[r1,#0x28]
        0x24042a1c:    6a88        .j      LDR      r0,[r1,#0x28]
        0x24042a1e:    f3c01c05    ....    UBFX     r12,r0,#4,#6
        0x24042a22:    6ac8        .j      LDR      r0,[r1,#0x2c]
        0x24042a24:    f1bc0f00    ....    CMP      r12,#0
        0x24042a28:    6b4b        Kk      LDR      r3,[r1,#0x34]
        0x24042a2a:    d01d        ..      BEQ      0x24042a68 ; HAL_RCC_GetSysClockFreq + 128
        0x24042a2c:    f3c303cc    ....    UBFX     r3,r3,#3,#13
        0x24042a30:    f0000001    ....    AND      r0,r0,#1
        0x24042a34:    4358        XC      MULS     r0,r3,r0
        0x24042a36:    f0020203    ....    AND      r2,r2,#3
        0x24042a3a:    2a02        .*      CMP      r2,#2
        0x24042a3c:    ee000a10    ....    VMOV     s0,r0
        0x24042a40:    eeb80a40    ..@.    VCVT.F32.U32 s0,s0
        0x24042a44:    d012        ..      BEQ      0x24042a6c ; HAL_RCC_GetSysClockFreq + 132
        0x24042a46:    b9a2        ..      CBNZ     r2,0x24042a72 ; HAL_RCC_GetSysClockFreq + 138
        0x24042a48:    6808        .h      LDR      r0,[r1,#0]
        0x24042a4a:    0680        ..      LSLS     r0,r0,#26
        0x24042a4c:    d414        ..      BMI      0x24042a78 ; HAL_RCC_GetSysClockFreq + 144
        0x24042a4e:    ed9f1a26    ..&.    VLDR     s2,[pc,#152] ; [0x24042ae8] = 0x4c742400
        0x24042a52:    e01e        ..      B        0x24042a92 ; HAL_RCC_GetSysClockFreq + 170
        0x24042a54:    f6470040    G.@.    MOV      r0,#0x7840
        0x24042a58:    f2c0107d    ..}.    MOVT     r0,#0x17d
        0x24042a5c:    4770        pG      BX       lr
        0x24042a5e:    f6401000    @...    MOVW     r0,#0x900
        0x24042a62:    f2c0003d    ..=.    MOVT     r0,#0x3d
        0x24042a66:    4770        pG      BX       lr
        0x24042a68:    2000        .       MOVS     r0,#0
        0x24042a6a:    4770        pG      BX       lr
        0x24042a6c:    ed9f1a1d    ....    VLDR     s2,[pc,#116] ; [0x24042ae4] = 0x4bbebc20
        0x24042a70:    e00f        ..      B        0x24042a92 ; HAL_RCC_GetSysClockFreq + 170
        0x24042a72:    ed9f1a1b    ....    VLDR     s2,[pc,#108] ; [0x24042ae0] = 0x4a742400
        0x24042a76:    e00c        ..      B        0x24042a92 ; HAL_RCC_GetSysClockFreq + 170
        0x24042a78:    6808        .h      LDR      r0,[r1,#0]
        0x24042a7a:    f2490200    I...    MOVW     r2,#0x9000
        0x24042a7e:    f2c032d0    ...2    MOVT     r2,#0x3d0
        0x24042a82:    f3c000c1    ....    UBFX     r0,r0,#3,#2
        0x24042a86:    fa22f000    "...    LSR      r0,r2,r0
        0x24042a8a:    ee010a10    ....    VMOV     s2,r0
        0x24042a8e:    eeb81a41    ..A.    VCVT.F32.U32 s2,s2
        0x24042a92:    6b08        .k      LDR      r0,[r1,#0x30]
        0x24042a94:    ed9f3a15    ...:    VLDR     s6,[pc,#84] ; [0x24042aec] = 0x39000000
        0x24042a98:    f36f205f    o._     BFC      r0,#9,#23
        0x24042a9c:    ee020a10    ....    VMOV     s4,r0
        0x24042aa0:    6b08        .k      LDR      r0,[r1,#0x30]
        0x24042aa2:    f3c02046    ..F     UBFX     r0,r0,#9,#7
        0x24042aa6:    eeb82a42    ..B*    VCVT.F32.U32 s4,s4
        0x24042aaa:    3001        .0      ADDS     r0,#1
        0x24042aac:    ee002a03    ...*    VMLA.F32 s4,s0,s6
        0x24042ab0:    ee00ca10    ....    VMOV     s0,r12
        0x24042ab4:    eeb73a00    ...:    VMOV.F32 s6,#1.00000000
        0x24042ab8:    eeb80a40    ..@.    VCVT.F32.U32 s0,s0
        0x24042abc:    ee810a00    ....    VDIV.F32 s0,s2,s0
        0x24042ac0:    ee321a03    2...    VADD.F32 s2,s4,s6
        0x24042ac4:    ee200a01     ...    VMUL.F32 s0,s0,s2
        0x24042ac8:    ee010a10    ....    VMOV     s2,r0
        0x24042acc:    eeb81a41    ..A.    VCVT.F32.U32 s2,s2
        0x24042ad0:    ee800a01    ....    VDIV.F32 s0,s0,s2
        0x24042ad4:    eebc0ac0    ....    VCVT.U32.F32 s0,s0
        0x24042ad8:    ee100a10    ....    VMOV     r0,s0
        0x24042adc:    4770        pG      BX       lr
        0x24042ade:    bf00        ..      NOP      
    $d.4
        0x24042ae0:    4a742400    .$tJ    DCD    1249125376
        0x24042ae4:    4bbebc20     ..K    DCD    1270791200
        0x24042ae8:    4c742400    .$tL    DCD    1282679808
        0x24042aec:    39000000    ...9    DCD    956301312
    $t.1
    HAL_RCC_OscConfig
        0x24042af0:    e92d43f0    -..C    PUSH     {r4-r9,lr}
        0x24042af4:    b081        ..      SUB      sp,sp,#4
        0x24042af6:    b1f8        ..      CBZ      r0,0x24042b38 ; HAL_RCC_OscConfig + 72
        0x24042af8:    4680        .F      MOV      r8,r0
        0x24042afa:    7800        .x      LDRB     r0,[r0,#0]
        0x24042afc:    f2444900    D..I    MOVW     r9,#0x4400
        0x24042b00:    07c0        ..      LSLS     r0,r0,#31
        0x24042b02:    f6c50902    ....    MOVT     r9,#0x5802
        0x24042b06:    d05a        Z.      BEQ      0x24042bbe ; HAL_RCC_OscConfig + 206
        0x24042b08:    f8d90010    ....    LDR      r0,[r9,#0x10]
        0x24042b0c:    f0000138    ..8.    AND      r1,r0,#0x38
        0x24042b10:    f8d90028    ..(.    LDR      r0,[r9,#0x28]
        0x24042b14:    2910        .)      CMP      r1,#0x10
        0x24042b16:    d005        ..      BEQ      0x24042b24 ; HAL_RCC_OscConfig + 52
        0x24042b18:    2918        .)      CMP      r1,#0x18
        0x24042b1a:    d10f        ..      BNE      0x24042b3c ; HAL_RCC_OscConfig + 76
        0x24042b1c:    f0000003    ....    AND      r0,r0,#3
        0x24042b20:    2802        .(      CMP      r0,#2
        0x24042b22:    d10b        ..      BNE      0x24042b3c ; HAL_RCC_OscConfig + 76
        0x24042b24:    f8d90000    ....    LDR      r0,[r9,#0]
        0x24042b28:    0380        ..      LSLS     r0,r0,#14
        0x24042b2a:    d544        D.      BPL      0x24042bb6 ; HAL_RCC_OscConfig + 198
        0x24042b2c:    f8d80004    ....    LDR      r0,[r8,#4]
        0x24042b30:    2800        .(      CMP      r0,#0
        0x24042b32:    d140        @.      BNE      0x24042bb6 ; HAL_RCC_OscConfig + 198
        0x24042b34:    2701        .'      MOVS     r7,#1
        0x24042b36:    e02f        /.      B        0x24042b98 ; HAL_RCC_OscConfig + 168
        0x24042b38:    2701        .'      MOVS     r7,#1
        0x24042b3a:    e235        5.      B        0x24042fa8 ; HAL_RCC_OscConfig + 1208
        0x24042b3c:    f8d84004    ...@    LDR      r4,[r8,#4]
        0x24042b40:    b12c        ,.      CBZ      r4,0x24042b4e ; HAL_RCC_OscConfig + 94
        0x24042b42:    f5b42fa0    .../    CMP      r4,#0x50000
        0x24042b46:    d00d        ..      BEQ      0x24042b64 ; HAL_RCC_OscConfig + 116
        0x24042b48:    f5b43f80    ...?    CMP      r4,#0x10000
        0x24042b4c:    d010        ..      BEQ      0x24042b70 ; HAL_RCC_OscConfig + 128
        0x24042b4e:    f8d90000    ....    LDR      r0,[r9,#0]
        0x24042b52:    f4203080     ..0    BIC      r0,r0,#0x10000
        0x24042b56:    f8c90000    ....    STR      r0,[r9,#0]
        0x24042b5a:    f8d90000    ....    LDR      r0,[r9,#0]
        0x24042b5e:    f4202080     ..     BIC      r0,r0,#0x40000
        0x24042b62:    e009        ..      B        0x24042b78 ; HAL_RCC_OscConfig + 136
        0x24042b64:    f8d90000    ....    LDR      r0,[r9,#0]
        0x24042b68:    f4402080    @..     ORR      r0,r0,#0x40000
        0x24042b6c:    f8c90000    ....    STR      r0,[r9,#0]
        0x24042b70:    f8d90000    ....    LDR      r0,[r9,#0]
        0x24042b74:    f4403080    @..0    ORR      r0,r0,#0x10000
        0x24042b78:    f8c90000    ....    STR      r0,[r9,#0]
        0x24042b7c:    f7fefe24    ..$.    BL       HAL_GetTick ; 0x240417c8
        0x24042b80:    4605        .F      MOV      r5,r0
        0x24042b82:    b1a4        ..      CBZ      r4,0x24042bae ; HAL_RCC_OscConfig + 190
        0x24042b84:    f8d90000    ....    LDR      r0,[r9,#0]
        0x24042b88:    0380        ..      LSLS     r0,r0,#14
        0x24042b8a:    d414        ..      BMI      0x24042bb6 ; HAL_RCC_OscConfig + 198
        0x24042b8c:    f7fefe1c    ....    BL       HAL_GetTick ; 0x240417c8
        0x24042b90:    1b40        @.      SUBS     r0,r0,r5
        0x24042b92:    2864        d(      CMP      r0,#0x64
        0x24042b94:    d9f6        ..      BLS      0x24042b84 ; HAL_RCC_OscConfig + 148
        0x24042b96:    2703        .'      MOVS     r7,#3
        0x24042b98:    2000        .       MOVS     r0,#0
        0x24042b9a:    2800        .(      CMP      r0,#0
        0x24042b9c:    f0008204    ....    BEQ.W    0x24042fa8 ; HAL_RCC_OscConfig + 1208
        0x24042ba0:    e00d        ..      B        0x24042bbe ; HAL_RCC_OscConfig + 206
        0x24042ba2:    bf00        ..      NOP      
        0x24042ba4:    f7fefe10    ....    BL       HAL_GetTick ; 0x240417c8
        0x24042ba8:    1b40        @.      SUBS     r0,r0,r5
        0x24042baa:    2864        d(      CMP      r0,#0x64
        0x24042bac:    d8f3        ..      BHI      0x24042b96 ; HAL_RCC_OscConfig + 166
        0x24042bae:    f8d90000    ....    LDR      r0,[r9,#0]
        0x24042bb2:    0380        ..      LSLS     r0,r0,#14
        0x24042bb4:    d4f6        ..      BMI      0x24042ba4 ; HAL_RCC_OscConfig + 180
        0x24042bb6:    2001        .       MOVS     r0,#1
        0x24042bb8:    2800        .(      CMP      r0,#0
        0x24042bba:    f00081f5    ....    BEQ.W    0x24042fa8 ; HAL_RCC_OscConfig + 1208
        0x24042bbe:    f8980000    ....    LDRB     r0,[r8,#0]
        0x24042bc2:    0780        ..      LSLS     r0,r0,#30
        0x24042bc4:    f1408084    @...    BPL.W    0x24042cd0 ; HAL_RCC_OscConfig + 480
        0x24042bc8:    f8d90010    ....    LDR      r0,[r9,#0x10]
        0x24042bcc:    f0100138    ..8.    ANDS     r1,r0,#0x38
        0x24042bd0:    f8d90028    ..(.    LDR      r0,[r9,#0x28]
        0x24042bd4:    d01c        ..      BEQ      0x24042c10 ; HAL_RCC_OscConfig + 288
        0x24042bd6:    2918        .)      CMP      r1,#0x18
        0x24042bd8:    bf08        ..      IT       EQ
        0x24042bda:    ea5f7080    _..p    LSLSEQ   r0,r0,#30
        0x24042bde:    d017        ..      BEQ      0x24042c10 ; HAL_RCC_OscConfig + 288
        0x24042be0:    f8d8000c    ....    LDR      r0,[r8,#0xc]
        0x24042be4:    f8d91000    ....    LDR      r1,[r9,#0]
        0x24042be8:    2800        .(      CMP      r0,#0
        0x24042bea:    d047        G.      BEQ      0x24042c7c ; HAL_RCC_OscConfig + 396
        0x24042bec:    f0210119    !...    BIC      r1,r1,#0x19
        0x24042bf0:    4308        .C      ORRS     r0,r0,r1
        0x24042bf2:    f8c90000    ....    STR      r0,[r9,#0]
        0x24042bf6:    f7fefde7    ....    BL       HAL_GetTick ; 0x240417c8
        0x24042bfa:    4605        .F      MOV      r5,r0
        0x24042bfc:    f8d90000    ....    LDR      r0,[r9,#0]
        0x24042c00:    0740        @.      LSLS     r0,r0,#29
        0x24042c02:    d42a        *.      BMI      0x24042c5a ; HAL_RCC_OscConfig + 362
        0x24042c04:    f7fefde0    ....    BL       HAL_GetTick ; 0x240417c8
        0x24042c08:    1b40        @.      SUBS     r0,r0,r5
        0x24042c0a:    2802        .(      CMP      r0,#2
        0x24042c0c:    d9f6        ..      BLS      0x24042bfc ; HAL_RCC_OscConfig + 268
        0x24042c0e:    e01e        ..      B        0x24042c4e ; HAL_RCC_OscConfig + 350
        0x24042c10:    f8d90000    ....    LDR      r0,[r9,#0]
        0x24042c14:    0740        @.      LSLS     r0,r0,#29
        0x24042c16:    d504        ..      BPL      0x24042c22 ; HAL_RCC_OscConfig + 306
        0x24042c18:    f8d8000c    ....    LDR      r0,[r8,#0xc]
        0x24042c1c:    2800        .(      CMP      r0,#0
        0x24042c1e:    f0008191    ....    BEQ.W    0x24042f44 ; HAL_RCC_OscConfig + 1108
        0x24042c22:    f8d90000    ....    LDR      r0,[r9,#0]
        0x24042c26:    f8d8100c    ....    LDR      r1,[r8,#0xc]
        0x24042c2a:    f0200019     ...    BIC      r0,r0,#0x19
        0x24042c2e:    4308        .C      ORRS     r0,r0,r1
        0x24042c30:    f8c90000    ....    STR      r0,[r9,#0]
        0x24042c34:    f7fefdc8    ....    BL       HAL_GetTick ; 0x240417c8
        0x24042c38:    4605        .F      MOV      r5,r0
        0x24042c3a:    bf00        ..      NOP      
        0x24042c3c:    f8d90000    ....    LDR      r0,[r9,#0]
        0x24042c40:    0740        @.      LSLS     r0,r0,#29
        0x24042c42:    d40a        ..      BMI      0x24042c5a ; HAL_RCC_OscConfig + 362
        0x24042c44:    f7fefdc0    ....    BL       HAL_GetTick ; 0x240417c8
        0x24042c48:    1b40        @.      SUBS     r0,r0,r5
        0x24042c4a:    2802        .(      CMP      r0,#2
        0x24042c4c:    d9f6        ..      BLS      0x24042c3c ; HAL_RCC_OscConfig + 332
        0x24042c4e:    2703        .'      MOVS     r7,#3
        0x24042c50:    2400        .$      MOVS     r4,#0
        0x24042c52:    2c00        .,      CMP      r4,#0
        0x24042c54:    f00081a8    ....    BEQ.W    0x24042fa8 ; HAL_RCC_OscConfig + 1208
        0x24042c58:    e03a        :.      B        0x24042cd0 ; HAL_RCC_OscConfig + 480
        0x24042c5a:    f7fefdad    ....    BL       HAL_GetREVID ; 0x240417b8
        0x24042c5e:    f2410103    A...    MOV      r1,#0x1003
        0x24042c62:    4288        .B      CMP      r0,r1
        0x24042c64:    d823        #.      BHI      0x24042cae ; HAL_RCC_OscConfig + 446
        0x24042c66:    f8d80010    ....    LDR      r0,[r8,#0x10]
        0x24042c6a:    f8d91004    ....    LDR      r1,[r9,#4]
        0x24042c6e:    2840        @(      CMP      r0,#0x40
        0x24042c70:    f421317c    !.|1    BIC      r1,r1,#0x3f000
        0x24042c74:    d124        $.      BNE      0x24042cc0 ; HAL_RCC_OscConfig + 464
        0x24042c76:    f4413000    A..0    ORR      r0,r1,#0x20000
        0x24042c7a:    e023        #.      B        0x24042cc4 ; HAL_RCC_OscConfig + 468
        0x24042c7c:    f0210001    !...    BIC      r0,r1,#1
        0x24042c80:    f8c90000    ....    STR      r0,[r9,#0]
        0x24042c84:    f7fefda0    ....    BL       HAL_GetTick ; 0x240417c8
        0x24042c88:    4605        .F      MOV      r5,r0
        0x24042c8a:    2601        .&      MOVS     r6,#1
        0x24042c8c:    f8d90000    ....    LDR      r0,[r9,#0]
        0x24042c90:    f0100004    ....    ANDS     r0,r0,#4
        0x24042c94:    ea860490    ....    EOR      r4,r6,r0,LSR #2
        0x24042c98:    d017        ..      BEQ      0x24042cca ; HAL_RCC_OscConfig + 474
        0x24042c9a:    f7fefd95    ....    BL       HAL_GetTick ; 0x240417c8
        0x24042c9e:    1b40        @.      SUBS     r0,r0,r5
        0x24042ca0:    2803        .(      CMP      r0,#3
        0x24042ca2:    d3f3        ..      BCC      0x24042c8c ; HAL_RCC_OscConfig + 412
        0x24042ca4:    2703        .'      MOVS     r7,#3
        0x24042ca6:    2c00        .,      CMP      r4,#0
        0x24042ca8:    f000817e    ..~.    BEQ.W    0x24042fa8 ; HAL_RCC_OscConfig + 1208
        0x24042cac:    e010        ..      B        0x24042cd0 ; HAL_RCC_OscConfig + 480
        0x24042cae:    f8d90004    ....    LDR      r0,[r9,#4]
        0x24042cb2:    f8d81010    ....    LDR      r1,[r8,#0x10]
        0x24042cb6:    f02040fe     ..@    BIC      r0,r0,#0x7f000000
        0x24042cba:    ea406001    @..`    ORR      r0,r0,r1,LSL #24
        0x24042cbe:    e001        ..      B        0x24042cc4 ; HAL_RCC_OscConfig + 468
        0x24042cc0:    ea413000    A..0    ORR      r0,r1,r0,LSL #12
        0x24042cc4:    f8c90004    ....    STR      r0,[r9,#4]
        0x24042cc8:    2401        .$      MOVS     r4,#1
        0x24042cca:    2c00        .,      CMP      r4,#0
        0x24042ccc:    f000816c    ..l.    BEQ.W    0x24042fa8 ; HAL_RCC_OscConfig + 1208
        0x24042cd0:    f8980000    ....    LDRB     r0,[r8,#0]
        0x24042cd4:    06c0        ..      LSLS     r0,r0,#27
        0x24042cd6:    d574        t.      BPL      0x24042dc2 ; HAL_RCC_OscConfig + 722
        0x24042cd8:    f8d90010    ....    LDR      r0,[r9,#0x10]
        0x24042cdc:    f0000138    ..8.    AND      r1,r0,#0x38
        0x24042ce0:    f8d90028    ..(.    LDR      r0,[r9,#0x28]
        0x24042ce4:    2908        .)      CMP      r1,#8
        0x24042ce6:    d005        ..      BEQ      0x24042cf4 ; HAL_RCC_OscConfig + 516
        0x24042ce8:    2918        .)      CMP      r1,#0x18
        0x24042cea:    d11c        ..      BNE      0x24042d26 ; HAL_RCC_OscConfig + 566
        0x24042cec:    f0000003    ....    AND      r0,r0,#3
        0x24042cf0:    2801        .(      CMP      r0,#1
        0x24042cf2:    d118        ..      BNE      0x24042d26 ; HAL_RCC_OscConfig + 566
        0x24042cf4:    f8d90000    ....    LDR      r0,[r9,#0]
        0x24042cf8:    05c0        ..      LSLS     r0,r0,#23
        0x24042cfa:    d503        ..      BPL      0x24042d04 ; HAL_RCC_OscConfig + 532
        0x24042cfc:    f8d8001c    ....    LDR      r0,[r8,#0x1c]
        0x24042d00:    2880        .(      CMP      r0,#0x80
        0x24042d02:    d159        Y.      BNE      0x24042db8 ; HAL_RCC_OscConfig + 712
        0x24042d04:    f7fefd58    ..X.    BL       HAL_GetREVID ; 0x240417b8
        0x24042d08:    f2410103    A...    MOV      r1,#0x1003
        0x24042d0c:    4288        .B      CMP      r0,r1
        0x24042d0e:    d822        ".      BHI      0x24042d56 ; HAL_RCC_OscConfig + 614
        0x24042d10:    f8d80020    .. .    LDR      r0,[r8,#0x20]
        0x24042d14:    f8d91004    ....    LDR      r1,[r9,#4]
        0x24042d18:    2820         (      CMP      r0,#0x20
        0x24042d1a:    f02141f8    !..A    BIC      r1,r1,#0x7c000000
        0x24042d1e:    d142        B.      BNE      0x24042da6 ; HAL_RCC_OscConfig + 694
        0x24042d20:    f0414080    A..@    ORR      r0,r1,#0x40000000
        0x24042d24:    e041        A.      B        0x24042daa ; HAL_RCC_OscConfig + 698
        0x24042d26:    f8d8001c    ....    LDR      r0,[r8,#0x1c]
        0x24042d2a:    2800        .(      CMP      r0,#0
        0x24042d2c:    f8d90000    ....    LDR      r0,[r9,#0]
        0x24042d30:    d020         .      BEQ      0x24042d74 ; HAL_RCC_OscConfig + 644
        0x24042d32:    f0400080    @...    ORR      r0,r0,#0x80
        0x24042d36:    f8c90000    ....    STR      r0,[r9,#0]
        0x24042d3a:    f7fefd45    ..E.    BL       HAL_GetTick ; 0x240417c8
        0x24042d3e:    4605        .F      MOV      r5,r0
        0x24042d40:    f8d90000    ....    LDR      r0,[r9,#0]
        0x24042d44:    05c0        ..      LSLS     r0,r0,#23
        0x24042d46:    d4dd        ..      BMI      0x24042d04 ; HAL_RCC_OscConfig + 532
        0x24042d48:    f7fefd3e    ..>.    BL       HAL_GetTick ; 0x240417c8
        0x24042d4c:    1b40        @.      SUBS     r0,r0,r5
        0x24042d4e:    2802        .(      CMP      r0,#2
        0x24042d50:    d9f6        ..      BLS      0x24042d40 ; HAL_RCC_OscConfig + 592
        0x24042d52:    2703        .'      MOVS     r7,#3
        0x24042d54:    e031        1.      B        0x24042dba ; HAL_RCC_OscConfig + 714
        0x24042d56:    f8d9000c    ....    LDR      r0,[r9,#0xc]
        0x24042d5a:    f8d81020    .. .    LDR      r1,[r8,#0x20]
        0x24042d5e:    f020507c     .|P    BIC      r0,r0,#0x3f000000
        0x24042d62:    2401        .$      MOVS     r4,#1
        0x24042d64:    ea406001    @..`    ORR      r0,r0,r1,LSL #24
        0x24042d68:    f8c9000c    ....    STR      r0,[r9,#0xc]
        0x24042d6c:    2c00        .,      CMP      r4,#0
        0x24042d6e:    f000811b    ....    BEQ.W    0x24042fa8 ; HAL_RCC_OscConfig + 1208
        0x24042d72:    e026        &.      B        0x24042dc2 ; HAL_RCC_OscConfig + 722
        0x24042d74:    f0200080     ...    BIC      r0,r0,#0x80
        0x24042d78:    f8c90000    ....    STR      r0,[r9,#0]
        0x24042d7c:    f7fefd24    ..$.    BL       HAL_GetTick ; 0x240417c8
        0x24042d80:    4605        .F      MOV      r5,r0
        0x24042d82:    2601        .&      MOVS     r6,#1
        0x24042d84:    f8d90000    ....    LDR      r0,[r9,#0]
        0x24042d88:    f4107080    ...p    ANDS     r0,r0,#0x100
        0x24042d8c:    ea862410    ...$    EOR      r4,r6,r0,LSR #8
        0x24042d90:    d00e        ..      BEQ      0x24042db0 ; HAL_RCC_OscConfig + 704
        0x24042d92:    f7fefd19    ....    BL       HAL_GetTick ; 0x240417c8
        0x24042d96:    1b40        @.      SUBS     r0,r0,r5
        0x24042d98:    2803        .(      CMP      r0,#3
        0x24042d9a:    d3f3        ..      BCC      0x24042d84 ; HAL_RCC_OscConfig + 660
        0x24042d9c:    2703        .'      MOVS     r7,#3
        0x24042d9e:    2c00        .,      CMP      r4,#0
        0x24042da0:    f0008102    ....    BEQ.W    0x24042fa8 ; HAL_RCC_OscConfig + 1208
        0x24042da4:    e00d        ..      B        0x24042dc2 ; HAL_RCC_OscConfig + 722
        0x24042da6:    ea416080    A..`    ORR      r0,r1,r0,LSL #26
        0x24042daa:    f8c90004    ....    STR      r0,[r9,#4]
        0x24042dae:    2401        .$      MOVS     r4,#1
        0x24042db0:    2c00        .,      CMP      r4,#0
        0x24042db2:    f00080f9    ....    BEQ.W    0x24042fa8 ; HAL_RCC_OscConfig + 1208
        0x24042db6:    e004        ..      B        0x24042dc2 ; HAL_RCC_OscConfig + 722
        0x24042db8:    2701        .'      MOVS     r7,#1
        0x24042dba:    2400        .$      MOVS     r4,#0
        0x24042dbc:    2c00        .,      CMP      r4,#0
        0x24042dbe:    f00080f3    ....    BEQ.W    0x24042fa8 ; HAL_RCC_OscConfig + 1208
        0x24042dc2:    f8980000    ....    LDRB     r0,[r8,#0]
        0x24042dc6:    0700        ..      LSLS     r0,r0,#28
        0x24042dc8:    d41c        ..      BMI      0x24042e04 ; HAL_RCC_OscConfig + 788
        0x24042dca:    f8980000    ....    LDRB     r0,[r8,#0]
        0x24042dce:    0680        ..      LSLS     r0,r0,#26
        0x24042dd0:    d431        1.      BMI      0x24042e36 ; HAL_RCC_OscConfig + 838
        0x24042dd2:    f8980000    ....    LDRB     r0,[r8,#0]
        0x24042dd6:    0740        @.      LSLS     r0,r0,#29
        0x24042dd8:    d445        E.      BMI      0x24042e66 ; HAL_RCC_OscConfig + 886
        0x24042dda:    f8d84024    ..$@    LDR      r4,[r8,#0x24]
        0x24042dde:    2c00        .,      CMP      r4,#0
        0x24042de0:    f00080e1    ....    BEQ.W    0x24042fa6 ; HAL_RCC_OscConfig + 1206
        0x24042de4:    f8d90010    ....    LDR      r0,[r9,#0x10]
        0x24042de8:    f0000038    ..8.    AND      r0,r0,#0x38
        0x24042dec:    2818        .(      CMP      r0,#0x18
        0x24042dee:    f0408088    @...    BNE.W    0x24042f02 ; HAL_RCC_OscConfig + 1042
        0x24042df2:    2c01        .,      CMP      r4,#1
        0x24042df4:    f8d91028    ..(.    LDR      r1,[r9,#0x28]
        0x24042df8:    f8d90030    ..0.    LDR      r0,[r9,#0x30]
        0x24042dfc:    f04080a4    @...    BNE.W    0x24042f48 ; HAL_RCC_OscConfig + 1112
        0x24042e00:    2701        .'      MOVS     r7,#1
        0x24042e02:    e0d1        ..      B        0x24042fa8 ; HAL_RCC_OscConfig + 1208
        0x24042e04:    f8d80014    ....    LDR      r0,[r8,#0x14]
        0x24042e08:    2800        .(      CMP      r0,#0
        0x24042e0a:    f8d90074    ..t.    LDR      r0,[r9,#0x74]
        0x24042e0e:    d03e        >.      BEQ      0x24042e8e ; HAL_RCC_OscConfig + 926
        0x24042e10:    f0400001    @...    ORR      r0,r0,#1
        0x24042e14:    f8c90074    ..t.    STR      r0,[r9,#0x74]
        0x24042e18:    f7fefcd6    ....    BL       HAL_GetTick ; 0x240417c8
        0x24042e1c:    4605        .F      MOV      r5,r0
        0x24042e1e:    bf00        ..      NOP      
        0x24042e20:    f8d90074    ..t.    LDR      r0,[r9,#0x74]
        0x24042e24:    0780        ..      LSLS     r0,r0,#30
        0x24042e26:    d4d0        ..      BMI      0x24042dca ; HAL_RCC_OscConfig + 730
        0x24042e28:    f7fefcce    ....    BL       HAL_GetTick ; 0x240417c8
        0x24042e2c:    1b40        @.      SUBS     r0,r0,r5
        0x24042e2e:    2802        .(      CMP      r0,#2
        0x24042e30:    d9f6        ..      BLS      0x24042e20 ; HAL_RCC_OscConfig + 816
        0x24042e32:    2703        .'      MOVS     r7,#3
        0x24042e34:    e0b8        ..      B        0x24042fa8 ; HAL_RCC_OscConfig + 1208
        0x24042e36:    f8d80018    ....    LDR      r0,[r8,#0x18]
        0x24042e3a:    2800        .(      CMP      r0,#0
        0x24042e3c:    f8d90000    ....    LDR      r0,[r9,#0]
        0x24042e40:    d04b        K.      BEQ      0x24042eda ; HAL_RCC_OscConfig + 1002
        0x24042e42:    f4405080    @..P    ORR      r0,r0,#0x1000
        0x24042e46:    f8c90000    ....    STR      r0,[r9,#0]
        0x24042e4a:    f7fefcbd    ....    BL       HAL_GetTick ; 0x240417c8
        0x24042e4e:    4605        .F      MOV      r5,r0
        0x24042e50:    f8d90000    ....    LDR      r0,[r9,#0]
        0x24042e54:    0480        ..      LSLS     r0,r0,#18
        0x24042e56:    d4bc        ..      BMI      0x24042dd2 ; HAL_RCC_OscConfig + 738
        0x24042e58:    f7fefcb6    ....    BL       HAL_GetTick ; 0x240417c8
        0x24042e5c:    1b40        @.      SUBS     r0,r0,r5
        0x24042e5e:    2802        .(      CMP      r0,#2
        0x24042e60:    d9f6        ..      BLS      0x24042e50 ; HAL_RCC_OscConfig + 864
        0x24042e62:    2703        .'      MOVS     r7,#3
        0x24042e64:    e0a0        ..      B        0x24042fa8 ; HAL_RCC_OscConfig + 1208
        0x24042e66:    f8d90400    ....    LDR      r0,[r9,#0x400]
        0x24042e6a:    f4407080    @..p    ORR      r0,r0,#0x100
        0x24042e6e:    f8c90400    ....    STR      r0,[r9,#0x400]
        0x24042e72:    f7fefca9    ....    BL       HAL_GetTick ; 0x240417c8
        0x24042e76:    4605        .F      MOV      r5,r0
        0x24042e78:    f8d90400    ....    LDR      r0,[r9,#0x400]
        0x24042e7c:    05c0        ..      LSLS     r0,r0,#23
        0x24042e7e:    d41a        ..      BMI      0x24042eb6 ; HAL_RCC_OscConfig + 966
        0x24042e80:    f7fefca2    ....    BL       HAL_GetTick ; 0x240417c8
        0x24042e84:    1b40        @.      SUBS     r0,r0,r5
        0x24042e86:    2864        d(      CMP      r0,#0x64
        0x24042e88:    d9f6        ..      BLS      0x24042e78 ; HAL_RCC_OscConfig + 904
        0x24042e8a:    2703        .'      MOVS     r7,#3
        0x24042e8c:    e08c        ..      B        0x24042fa8 ; HAL_RCC_OscConfig + 1208
        0x24042e8e:    f0200001     ...    BIC      r0,r0,#1
        0x24042e92:    f8c90074    ..t.    STR      r0,[r9,#0x74]
        0x24042e96:    f7fefc97    ....    BL       HAL_GetTick ; 0x240417c8
        0x24042e9a:    4605        .F      MOV      r5,r0
        0x24042e9c:    2703        .'      MOVS     r7,#3
        0x24042e9e:    bf00        ..      NOP      
        0x24042ea0:    f8d90074    ..t.    LDR      r0,[r9,#0x74]
        0x24042ea4:    0780        ..      LSLS     r0,r0,#30
        0x24042ea6:    f57faf90    ....    BPL.W    0x24042dca ; HAL_RCC_OscConfig + 730
        0x24042eaa:    f7fefc8d    ....    BL       HAL_GetTick ; 0x240417c8
        0x24042eae:    1b40        @.      SUBS     r0,r0,r5
        0x24042eb0:    2802        .(      CMP      r0,#2
        0x24042eb2:    d9f5        ..      BLS      0x24042ea0 ; HAL_RCC_OscConfig + 944
        0x24042eb4:    e078        x.      B        0x24042fa8 ; HAL_RCC_OscConfig + 1208
        0x24042eb6:    f8d84008    ...@    LDR      r4,[r8,#8]
        0x24042eba:    b11c        ..      CBZ      r4,0x24042ec4 ; HAL_RCC_OscConfig + 980
        0x24042ebc:    2c05        .,      CMP      r4,#5
        0x24042ebe:    d077        w.      BEQ      0x24042fb0 ; HAL_RCC_OscConfig + 1216
        0x24042ec0:    2c01        .,      CMP      r4,#1
        0x24042ec2:    d07b        {.      BEQ      0x24042fbc ; HAL_RCC_OscConfig + 1228
        0x24042ec4:    f8d90070    ..p.    LDR      r0,[r9,#0x70]
        0x24042ec8:    f0200001     ...    BIC      r0,r0,#1
        0x24042ecc:    f8c90070    ..p.    STR      r0,[r9,#0x70]
        0x24042ed0:    f8d90070    ..p.    LDR      r0,[r9,#0x70]
        0x24042ed4:    f0200004     ...    BIC      r0,r0,#4
        0x24042ed8:    e074        t.      B        0x24042fc4 ; HAL_RCC_OscConfig + 1236
        0x24042eda:    f4205080     ..P    BIC      r0,r0,#0x1000
        0x24042ede:    f8c90000    ....    STR      r0,[r9,#0]
        0x24042ee2:    f7fefc71    ..q.    BL       HAL_GetTick ; 0x240417c8
        0x24042ee6:    4605        .F      MOV      r5,r0
        0x24042ee8:    2703        .'      MOVS     r7,#3
        0x24042eea:    bf00        ..      NOP      
        0x24042eec:    f8d90000    ....    LDR      r0,[r9,#0]
        0x24042ef0:    0480        ..      LSLS     r0,r0,#18
        0x24042ef2:    f57faf6e    ..n.    BPL      0x24042dd2 ; HAL_RCC_OscConfig + 738
        0x24042ef6:    f7fefc67    ..g.    BL       HAL_GetTick ; 0x240417c8
        0x24042efa:    1b40        @.      SUBS     r0,r0,r5
        0x24042efc:    2802        .(      CMP      r0,#2
        0x24042efe:    d9f5        ..      BLS      0x24042eec ; HAL_RCC_OscConfig + 1020
        0x24042f00:    e052        R.      B        0x24042fa8 ; HAL_RCC_OscConfig + 1208
        0x24042f02:    f8d90000    ....    LDR      r0,[r9,#0]
        0x24042f06:    f0207080     ..p    BIC      r0,r0,#0x1000000
        0x24042f0a:    f8c90000    ....    STR      r0,[r9,#0]
        0x24042f0e:    f7fefc5b    ..[.    BL       HAL_GetTick ; 0x240417c8
        0x24042f12:    2c02        .,      CMP      r4,#2
        0x24042f14:    4605        .F      MOV      r5,r0
        0x24042f16:    f04f0703    O...    MOV      r7,#3
        0x24042f1a:    d109        ..      BNE      0x24042f30 ; HAL_RCC_OscConfig + 1088
        0x24042f1c:    f8d90000    ....    LDR      r0,[r9,#0]
        0x24042f20:    0180        ..      LSLS     r0,r0,#6
        0x24042f22:    d571        q.      BPL      0x24043008 ; HAL_RCC_OscConfig + 1304
        0x24042f24:    f7fefc50    ..P.    BL       HAL_GetTick ; 0x240417c8
        0x24042f28:    1b40        @.      SUBS     r0,r0,r5
        0x24042f2a:    2802        .(      CMP      r0,#2
        0x24042f2c:    d9f6        ..      BLS      0x24042f1c ; HAL_RCC_OscConfig + 1068
        0x24042f2e:    e03b        ;.      B        0x24042fa8 ; HAL_RCC_OscConfig + 1208
        0x24042f30:    f8d90000    ....    LDR      r0,[r9,#0]
        0x24042f34:    0180        ..      LSLS     r0,r0,#6
        0x24042f36:    d536        6.      BPL      0x24042fa6 ; HAL_RCC_OscConfig + 1206
        0x24042f38:    f7fefc46    ..F.    BL       HAL_GetTick ; 0x240417c8
        0x24042f3c:    1b40        @.      SUBS     r0,r0,r5
        0x24042f3e:    2802        .(      CMP      r0,#2
        0x24042f40:    d9f6        ..      BLS      0x24042f30 ; HAL_RCC_OscConfig + 1088
        0x24042f42:    e031        1.      B        0x24042fa8 ; HAL_RCC_OscConfig + 1208
        0x24042f44:    2701        .'      MOVS     r7,#1
        0x24042f46:    e683        ..      B        0x24042c50 ; HAL_RCC_OscConfig + 352
        0x24042f48:    f0010203    ....    AND      r2,r1,#3
        0x24042f4c:    f8d83028    ..(0    LDR      r3,[r8,#0x28]
        0x24042f50:    429a        .B      CMP      r2,r3
        0x24042f52:    f04080d3    @...    BNE.W    0x240430fc ; HAL_RCC_OscConfig + 1548
        0x24042f56:    f3c11105    ....    UBFX     r1,r1,#4,#6
        0x24042f5a:    f8d8202c    ..,     LDR      r2,[r8,#0x2c]
        0x24042f5e:    4291        .B      CMP      r1,r2
        0x24042f60:    f04080ce    @...    BNE.W    0x24043100 ; HAL_RCC_OscConfig + 1552
        0x24042f64:    4601        .F      MOV      r1,r0
        0x24042f66:    f8d82030    ..0     LDR      r2,[r8,#0x30]
        0x24042f6a:    f36f215f    o._!    BFC      r1,#9,#23
        0x24042f6e:    3a01        .:      SUBS     r2,#1
        0x24042f70:    4291        .B      CMP      r1,r2
        0x24042f72:    f04080c7    @...    BNE.W    0x24043104 ; HAL_RCC_OscConfig + 1556
        0x24042f76:    f3c02246    ..F"    UBFX     r2,r0,#9,#7
        0x24042f7a:    f8d81034    ..4.    LDR      r1,[r8,#0x34]
        0x24042f7e:    3901        .9      SUBS     r1,#1
        0x24042f80:    428a        .B      CMP      r2,r1
        0x24042f82:    f04080c1    @...    BNE.W    0x24043108 ; HAL_RCC_OscConfig + 1560
        0x24042f86:    f3c04206    ...B    UBFX     r2,r0,#16,#7
        0x24042f8a:    f8d81038    ..8.    LDR      r1,[r8,#0x38]
        0x24042f8e:    3901        .9      SUBS     r1,#1
        0x24042f90:    428a        .B      CMP      r2,r1
        0x24042f92:    f04080bb    @...    BNE.W    0x2404310c ; HAL_RCC_OscConfig + 1564
        0x24042f96:    f3c06006    ...`    UBFX     r0,r0,#24,#7
        0x24042f9a:    f8d8103c    ..<.    LDR      r1,[r8,#0x3c]
        0x24042f9e:    3901        .9      SUBS     r1,#1
        0x24042fa0:    4288        .B      CMP      r0,r1
        0x24042fa2:    f04080b5    @...    BNE.W    0x24043110 ; HAL_RCC_OscConfig + 1568
        0x24042fa6:    2700        .'      MOVS     r7,#0
        0x24042fa8:    b2f8        ..      UXTB     r0,r7
        0x24042faa:    b001        ..      ADD      sp,sp,#4
        0x24042fac:    e8bd83f0    ....    POP      {r4-r9,pc}
        0x24042fb0:    f8d90070    ..p.    LDR      r0,[r9,#0x70]
        0x24042fb4:    f0400004    @...    ORR      r0,r0,#4
        0x24042fb8:    f8c90070    ..p.    STR      r0,[r9,#0x70]
        0x24042fbc:    f8d90070    ..p.    LDR      r0,[r9,#0x70]
        0x24042fc0:    f0400001    @...    ORR      r0,r0,#1
        0x24042fc4:    f8c90070    ..p.    STR      r0,[r9,#0x70]
        0x24042fc8:    f7fefbfe    ....    BL       HAL_GetTick ; 0x240417c8
        0x24042fcc:    2c00        .,      CMP      r4,#0
        0x24042fce:    4605        .F      MOV      r5,r0
        0x24042fd0:    f2413488    A..4    MOV      r4,#0x1388
        0x24042fd4:    f04f0703    O...    MOV      r7,#3
        0x24042fd8:    d011        ..      BEQ      0x24042ffe ; HAL_RCC_OscConfig + 1294
        0x24042fda:    bf00        ..      NOP      
        0x24042fdc:    f8d90070    ..p.    LDR      r0,[r9,#0x70]
        0x24042fe0:    0780        ..      LSLS     r0,r0,#30
        0x24042fe2:    f53faefa    ?...    BMI      0x24042dda ; HAL_RCC_OscConfig + 746
        0x24042fe6:    f7fefbef    ....    BL       HAL_GetTick ; 0x240417c8
        0x24042fea:    1b40        @.      SUBS     r0,r0,r5
        0x24042fec:    42a0        .B      CMP      r0,r4
        0x24042fee:    d9f5        ..      BLS      0x24042fdc ; HAL_RCC_OscConfig + 1260
        0x24042ff0:    e7da        ..      B        0x24042fa8 ; HAL_RCC_OscConfig + 1208
        0x24042ff2:    bf00        ..      NOP      
        0x24042ff4:    f7fefbe8    ....    BL       HAL_GetTick ; 0x240417c8
        0x24042ff8:    1b40        @.      SUBS     r0,r0,r5
        0x24042ffa:    42a0        .B      CMP      r0,r4
        0x24042ffc:    d8d4        ..      BHI      0x24042fa8 ; HAL_RCC_OscConfig + 1208
        0x24042ffe:    f8d90070    ..p.    LDR      r0,[r9,#0x70]
        0x24043002:    0780        ..      LSLS     r0,r0,#30
        0x24043004:    d4f6        ..      BMI      0x24042ff4 ; HAL_RCC_OscConfig + 1284
        0x24043006:    e6e8        ..      B        0x24042dda ; HAL_RCC_OscConfig + 746
        0x24043008:    f1080728    ..(.    ADD      r7,r8,#0x28
        0x2404300c:    f8d90028    ..(.    LDR      r0,[r9,#0x28]
        0x24043010:    f24031f3    @..1    MOV      r1,#0x3f3
        0x24043014:    4388        .C      BICS     r0,r0,r1
        0x24043016:    cf8e        ..      LDM      r7,{r1-r3,r7}
        0x24043018:    4308        .C      ORRS     r0,r0,r1
        0x2404301a:    1e59        Y.      SUBS     r1,r3,#1
        0x2404301c:    ea401002    @...    ORR      r0,r0,r2,LSL #4
        0x24043020:    f44f427e    O.~B    MOV      r2,#0xfe00
        0x24043024:    f36f215f    o._!    BFC      r1,#9,#23
        0x24043028:    f8c90028    ..(.    STR      r0,[r9,#0x28]
        0x2404302c:    eb022047    ..G     ADD      r0,r2,r7,LSL #9
        0x24043030:    f44f02fe    O...    MOV      r2,#0x7f0000
        0x24043034:    b280        ..      UXTH     r0,r0
        0x24043036:    f8d8303c    ..<0    LDR      r3,[r8,#0x3c]
        0x2404303a:    4408        .D      ADD      r0,r0,r1
        0x2404303c:    f8d81038    ..8.    LDR      r1,[r8,#0x38]
        0x24043040:    eb024101    ...A    ADD      r1,r2,r1,LSL #16
        0x24043044:    f04f42fe    O..B    MOV      r2,#0x7f000000
        0x24043048:    f40101fe    ....    AND      r1,r1,#0x7f0000
        0x2404304c:    eb026203    ...b    ADD      r2,r2,r3,LSL #24
        0x24043050:    4408        .D      ADD      r0,r0,r1
        0x24043052:    f00241fe    ...A    AND      r1,r2,#0x7f000000
        0x24043056:    4408        .D      ADD      r0,r0,r1
        0x24043058:    f8c90030    ..0.    STR      r0,[r9,#0x30]
        0x2404305c:    f8d9002c    ..,.    LDR      r0,[r9,#0x2c]
        0x24043060:    f64f71f8    O..q    MOV      r1,#0xfff8
        0x24043064:    f0200001     ...    BIC      r0,r0,#1
        0x24043068:    f8c9002c    ..,.    STR      r0,[r9,#0x2c]
        0x2404306c:    f8d90034    ..4.    LDR      r0,[r9,#0x34]
        0x24043070:    f8d82048    ..H     LDR      r2,[r8,#0x48]
        0x24043074:    4388        .C      BICS     r0,r0,r1
        0x24043076:    ea4000c2    @...    ORR      r0,r0,r2,LSL #3
        0x2404307a:    f8c90034    ..4.    STR      r0,[r9,#0x34]
        0x2404307e:    f8d9002c    ..,.    LDR      r0,[r9,#0x2c]
        0x24043082:    f8d81040    ..@.    LDR      r1,[r8,#0x40]
        0x24043086:    f020000c     ...    BIC      r0,r0,#0xc
        0x2404308a:    4308        .C      ORRS     r0,r0,r1
        0x2404308c:    f8c9002c    ..,.    STR      r0,[r9,#0x2c]
        0x24043090:    f8d9002c    ..,.    LDR      r0,[r9,#0x2c]
        0x24043094:    f8d81044    ..D.    LDR      r1,[r8,#0x44]
        0x24043098:    f0200002     ...    BIC      r0,r0,#2
        0x2404309c:    4308        .C      ORRS     r0,r0,r1
        0x2404309e:    f8c9002c    ..,.    STR      r0,[r9,#0x2c]
        0x240430a2:    f8d9002c    ..,.    LDR      r0,[r9,#0x2c]
        0x240430a6:    f4403080    @..0    ORR      r0,r0,#0x10000
        0x240430aa:    f8c9002c    ..,.    STR      r0,[r9,#0x2c]
        0x240430ae:    f8d9002c    ..,.    LDR      r0,[r9,#0x2c]
        0x240430b2:    f4403000    @..0    ORR      r0,r0,#0x20000
        0x240430b6:    f8c9002c    ..,.    STR      r0,[r9,#0x2c]
        0x240430ba:    f8d9002c    ..,.    LDR      r0,[r9,#0x2c]
        0x240430be:    f4402080    @..     ORR      r0,r0,#0x40000
        0x240430c2:    f8c9002c    ..,.    STR      r0,[r9,#0x2c]
        0x240430c6:    f8d9002c    ..,.    LDR      r0,[r9,#0x2c]
        0x240430ca:    f0400001    @...    ORR      r0,r0,#1
        0x240430ce:    f8c9002c    ..,.    STR      r0,[r9,#0x2c]
        0x240430d2:    f8d90000    ....    LDR      r0,[r9,#0]
        0x240430d6:    f0407080    @..p    ORR      r0,r0,#0x1000000
        0x240430da:    f8c90000    ....    STR      r0,[r9,#0]
        0x240430de:    f7fefb73    ..s.    BL       HAL_GetTick ; 0x240417c8
        0x240430e2:    4604        .F      MOV      r4,r0
        0x240430e4:    2703        .'      MOVS     r7,#3
        0x240430e6:    f8d90000    ....    LDR      r0,[r9,#0]
        0x240430ea:    0180        ..      LSLS     r0,r0,#6
        0x240430ec:    f53faf5b    ?.[.    BMI      0x24042fa6 ; HAL_RCC_OscConfig + 1206
        0x240430f0:    f7fefb6a    ..j.    BL       HAL_GetTick ; 0x240417c8
        0x240430f4:    1b00        ..      SUBS     r0,r0,r4
        0x240430f6:    2802        .(      CMP      r0,#2
        0x240430f8:    d9f5        ..      BLS      0x240430e6 ; HAL_RCC_OscConfig + 1526
        0x240430fa:    e755        U.      B        0x24042fa8 ; HAL_RCC_OscConfig + 1208
        0x240430fc:    2701        .'      MOVS     r7,#1
        0x240430fe:    e753        S.      B        0x24042fa8 ; HAL_RCC_OscConfig + 1208
        0x24043100:    2701        .'      MOVS     r7,#1
        0x24043102:    e751        Q.      B        0x24042fa8 ; HAL_RCC_OscConfig + 1208
        0x24043104:    2701        .'      MOVS     r7,#1
        0x24043106:    e74f        O.      B        0x24042fa8 ; HAL_RCC_OscConfig + 1208
        0x24043108:    2701        .'      MOVS     r7,#1
        0x2404310a:    e74d        M.      B        0x24042fa8 ; HAL_RCC_OscConfig + 1208
        0x2404310c:    2701        .'      MOVS     r7,#1
        0x2404310e:    e74b        K.      B        0x24042fa8 ; HAL_RCC_OscConfig + 1208
        0x24043110:    2701        .'      MOVS     r7,#1
        0x24043112:    e749        I.      B        0x24042fa8 ; HAL_RCC_OscConfig + 1208
        0x24043114:    0000        ..      MOVS     r0,r0
        0x24043116:    0000        ..      MOVS     r0,r0
    HAL_SYSTICK_Config
        0x24043118:    b580        ..      PUSH     {r7,lr}
        0x2404311a:    f000fd4d    ..M.    BL       SysTick_Config ; 0x24043bb8
        0x2404311e:    bd80        ..      POP      {r7,pc}
    HAL_TIMEx_Break2Callback
        0x24043120:    4770        pG      BX       lr
        0x24043122:    0000        ..      MOVS     r0,r0
        0x24043124:    0000        ..      MOVS     r0,r0
        0x24043126:    0000        ..      MOVS     r0,r0
    HAL_TIMEx_BreakCallback
        0x24043128:    4770        pG      BX       lr
        0x2404312a:    0000        ..      MOVS     r0,r0
        0x2404312c:    0000        ..      MOVS     r0,r0
        0x2404312e:    0000        ..      MOVS     r0,r0
    HAL_TIMEx_CommutCallback
        0x24043130:    4770        pG      BX       lr
        0x24043132:    0000        ..      MOVS     r0,r0
        0x24043134:    0000        ..      MOVS     r0,r0
        0x24043136:    0000        ..      MOVS     r0,r0
    HAL_TIMEx_MasterConfigSynchronization
        0x24043138:    b5b0        ..      PUSH     {r4,r5,r7,lr}
        0x2404313a:    f890203c    ..<     LDRB     r2,[r0,#0x3c]
        0x2404313e:    2a01        .*      CMP      r2,#1
        0x24043140:    f04f0202    O...    MOV      r2,#2
        0x24043144:    d05c        \.      BEQ      0x24043200 ; HAL_TIMEx_MasterConfigSynchronization + 200
        0x24043146:    2301        .#      MOVS     r3,#1
        0x24043148:    f880303c    ..<0    STRB     r3,[r0,#0x3c]
        0x2404314c:    f880203d    ..=     STRB     r2,[r0,#0x3d]
        0x24043150:    f2404c00    @..L    MOVW     r12,#0x400
        0x24043154:    6802        .h      LDR      r2,[r0,#0]
        0x24043156:    f2c40c01    ....    MOVT     r12,#0x4001
        0x2404315a:    f4426380    B..c    ORR      r3,r2,#0x400
        0x2404315e:    4563        cE      CMP      r3,r12
        0x24043160:    6853        Sh      LDR      r3,[r2,#4]
        0x24043162:    f8d2e008    ....    LDR      lr,[r2,#8]
        0x24043166:    bf02        ..      ITTT     EQ
        0x24043168:    f4230370    #.p.    BICEQ    r3,r3,#0xf00000
        0x2404316c:    684c        Lh      LDREQ    r4,[r1,#4]
        0x2404316e:    4323        #C      ORREQ    r3,r3,r4
        0x24043170:    f24174ff    A..t    MOV      r4,#0x17ff
        0x24043174:    680d        .h      LDR      r5,[r1,#0]
        0x24043176:    f2c40400    ....    MOVT     r4,#0x4000
        0x2404317a:    f0230370    #.p.    BIC      r3,r3,#0x70
        0x2404317e:    42a2        .B      CMP      r2,r4
        0x24043180:    ea430305    C...    ORR      r3,r3,r5
        0x24043184:    6053        S`      STR      r3,[r2,#4]
        0x24043186:    dc0b        ..      BGT      0x240431a0 ; HAL_TIMEx_MasterConfigSynchronization + 104
        0x24043188:    f24073ff    @..s    MOV      r3,#0x7ff
        0x2404318c:    f2c40300    ....    MOVT     r3,#0x4000
        0x24043190:    429a        .B      CMP      r2,r3
        0x24043192:    dc15        ..      BGT      0x240431c0 ; HAL_TIMEx_MasterConfigSynchronization + 136
        0x24043194:    f1b24f80    ...O    CMP      r2,#0x40000000
        0x24043198:    d027        '.      BEQ      0x240431ea ; HAL_TIMEx_MasterConfigSynchronization + 178
        0x2404319a:    f2404300    @..C    MOVW     r3,#0x400
        0x2404319e:    e017        ..      B        0x240431d0 ; HAL_TIMEx_MasterConfigSynchronization + 152
        0x240431a0:    f24033ff    @..3    MOV      r3,#0x3ff
        0x240431a4:    f2c40301    ....    MOVT     r3,#0x4001
        0x240431a8:    429a        .B      CMP      r2,r3
        0x240431aa:    dc16        ..      BGT      0x240431da ; HAL_TIMEx_MasterConfigSynchronization + 162
        0x240431ac:    f6410300    A...    MOVW     r3,#0x1800
        0x240431b0:    f2c40300    ....    MOVT     r3,#0x4000
        0x240431b4:    429a        .B      CMP      r2,r3
        0x240431b6:    d018        ..      BEQ      0x240431ea ; HAL_TIMEx_MasterConfigSynchronization + 178
        0x240431b8:    2300        .#      MOVS     r3,#0
        0x240431ba:    f2c40301    ....    MOVT     r3,#0x4001
        0x240431be:    e009        ..      B        0x240431d4 ; HAL_TIMEx_MasterConfigSynchronization + 156
        0x240431c0:    f6400300    @...    MOVW     r3,#0x800
        0x240431c4:    f2c40300    ....    MOVT     r3,#0x4000
        0x240431c8:    429a        .B      CMP      r2,r3
        0x240431ca:    d00e        ..      BEQ      0x240431ea ; HAL_TIMEx_MasterConfigSynchronization + 178
        0x240431cc:    f6404300    @..C    MOVW     r3,#0xc00
        0x240431d0:    f2c40300    ....    MOVT     r3,#0x4000
        0x240431d4:    429a        .B      CMP      r2,r3
        0x240431d6:    d008        ..      BEQ      0x240431ea ; HAL_TIMEx_MasterConfigSynchronization + 178
        0x240431d8:    e00c        ..      B        0x240431f4 ; HAL_TIMEx_MasterConfigSynchronization + 188
        0x240431da:    f2440300    D...    MOVW     r3,#0x4000
        0x240431de:    f2c40301    ....    MOVT     r3,#0x4001
        0x240431e2:    429a        .B      CMP      r2,r3
        0x240431e4:    d001        ..      BEQ      0x240431ea ; HAL_TIMEx_MasterConfigSynchronization + 178
        0x240431e6:    4562        bE      CMP      r2,r12
        0x240431e8:    d104        ..      BNE      0x240431f4 ; HAL_TIMEx_MasterConfigSynchronization + 188
        0x240431ea:    f02e0380    ....    BIC      r3,lr,#0x80
        0x240431ee:    6889        .h      LDR      r1,[r1,#8]
        0x240431f0:    4319        .C      ORRS     r1,r1,r3
        0x240431f2:    6091        .`      STR      r1,[r2,#8]
        0x240431f4:    2200        ."      MOVS     r2,#0
        0x240431f6:    2101        .!      MOVS     r1,#1
        0x240431f8:    f880103d    ..=.    STRB     r1,[r0,#0x3d]
        0x240431fc:    f880203c    ..<     STRB     r2,[r0,#0x3c]
        0x24043200:    4610        .F      MOV      r0,r2
        0x24043202:    bdb0        ..      POP      {r4,r5,r7,pc}
        0x24043204:    0000        ..      MOVS     r0,r0
        0x24043206:    0000        ..      MOVS     r0,r0
    HAL_TIM_Base_Init
        0x24043208:    b360        `.      CBZ      r0,0x24043264 ; HAL_TIM_Base_Init + 92
        0x2404320a:    b510        ..      PUSH     {r4,lr}
        0x2404320c:    4604        .F      MOV      r4,r0
        0x2404320e:    f890003d    ..=.    LDRB     r0,[r0,#0x3d]
        0x24043212:    b928        (.      CBNZ     r0,0x24043220 ; HAL_TIM_Base_Init + 24
        0x24043214:    2000        .       MOVS     r0,#0
        0x24043216:    f884003c    ..<.    STRB     r0,[r4,#0x3c]
        0x2404321a:    4620         F      MOV      r0,r4
        0x2404321c:    f000f824    ..$.    BL       HAL_TIM_Base_MspInit ; 0x24043268
        0x24043220:    2002        .       MOVS     r0,#2
        0x24043222:    f884003d    ..=.    STRB     r0,[r4,#0x3d]
        0x24043226:    6820         h      LDR      r0,[r4,#0]
        0x24043228:    1d21        !.      ADDS     r1,r4,#4
        0x2404322a:    f000fdd5    ....    BL       TIM_Base_SetConfig ; 0x24043dd8
        0x2404322e:    2001        .       MOVS     r0,#1
        0x24043230:    f8840048    ..H.    STRB     r0,[r4,#0x48]
        0x24043234:    f884003e    ..>.    STRB     r0,[r4,#0x3e]
        0x24043238:    f884003f    ..?.    STRB     r0,[r4,#0x3f]
        0x2404323c:    f8840040    ..@.    STRB     r0,[r4,#0x40]
        0x24043240:    f8840041    ..A.    STRB     r0,[r4,#0x41]
        0x24043244:    f8840042    ..B.    STRB     r0,[r4,#0x42]
        0x24043248:    f8840043    ..C.    STRB     r0,[r4,#0x43]
        0x2404324c:    f8840044    ..D.    STRB     r0,[r4,#0x44]
        0x24043250:    f8840045    ..E.    STRB     r0,[r4,#0x45]
        0x24043254:    f8840046    ..F.    STRB     r0,[r4,#0x46]
        0x24043258:    f8840047    ..G.    STRB     r0,[r4,#0x47]
        0x2404325c:    f884003d    ..=.    STRB     r0,[r4,#0x3d]
        0x24043260:    2000        .       MOVS     r0,#0
        0x24043262:    bd10        ..      POP      {r4,pc}
        0x24043264:    2001        .       MOVS     r0,#1
        0x24043266:    4770        pG      BX       lr
    HAL_TIM_Base_MspInit
        0x24043268:    b580        ..      PUSH     {r7,lr}
        0x2404326a:    b082        ..      SUB      sp,sp,#8
        0x2404326c:    f2410100    A...    MOVW     r1,#0x1000
        0x24043270:    6800        .h      LDR      r0,[r0,#0]
        0x24043272:    f2c40100    ....    MOVT     r1,#0x4000
        0x24043276:    4288        .B      CMP      r0,r1
        0x24043278:    d001        ..      BEQ      0x2404327e ; HAL_TIM_Base_MspInit + 22
        0x2404327a:    b002        ..      ADD      sp,sp,#8
        0x2404327c:    bd80        ..      POP      {r7,pc}
        0x2404327e:    f24440e8    D..@    MOV      r0,#0x44e8
        0x24043282:    2200        ."      MOVS     r2,#0
        0x24043284:    f6c50002    ....    MOVT     r0,#0x5802
        0x24043288:    6801        .h      LDR      r1,[r0,#0]
        0x2404328a:    f0410110    A...    ORR      r1,r1,#0x10
        0x2404328e:    6001        .`      STR      r1,[r0,#0]
        0x24043290:    6800        .h      LDR      r0,[r0,#0]
        0x24043292:    2100        .!      MOVS     r1,#0
        0x24043294:    f0000010    ....    AND      r0,r0,#0x10
        0x24043298:    9001        ..      STR      r0,[sp,#4]
        0x2404329a:    9801        ..      LDR      r0,[sp,#4]
        0x2404329c:    2036        6       MOVS     r0,#0x36
        0x2404329e:    f7fefb23    ..#.    BL       HAL_NVIC_SetPriority ; 0x240418e8
        0x240432a2:    2036        6       MOVS     r0,#0x36
        0x240432a4:    f7fefb1c    ....    BL       HAL_NVIC_EnableIRQ ; 0x240418e0
        0x240432a8:    b002        ..      ADD      sp,sp,#8
        0x240432aa:    bd80        ..      POP      {r7,pc}
        0x240432ac:    0000        ..      MOVS     r0,r0
        0x240432ae:    0000        ..      MOVS     r0,r0
    HAL_TIM_Base_Start_IT
        0x240432b0:    f890103d    ..=.    LDRB     r1,[r0,#0x3d]
        0x240432b4:    2901        .)      CMP      r1,#1
        0x240432b6:    d11b        ..      BNE      0x240432f0 ; HAL_TIM_Base_Start_IT + 64
        0x240432b8:    2102        .!      MOVS     r1,#2
        0x240432ba:    f880103d    ..=.    STRB     r1,[r0,#0x3d]
        0x240432be:    6801        .h      LDR      r1,[r0,#0]
        0x240432c0:    f24170ff    A..p    MOV      r0,#0x17ff
        0x240432c4:    f2c40000    ....    MOVT     r0,#0x4000
        0x240432c8:    4281        .B      CMP      r1,r0
        0x240432ca:    68c8        .h      LDR      r0,[r1,#0xc]
        0x240432cc:    f0400001    @...    ORR      r0,r0,#1
        0x240432d0:    60c8        .`      STR      r0,[r1,#0xc]
        0x240432d2:    dc0f        ..      BGT      0x240432f4 ; HAL_TIM_Base_Start_IT + 68
        0x240432d4:    f24070ff    @..p    MOV      r0,#0x7ff
        0x240432d8:    f2c40000    ....    MOVT     r0,#0x4000
        0x240432dc:    4281        .B      CMP      r1,r0
        0x240432de:    dc17        ..      BGT      0x24043310 ; HAL_TIM_Base_Start_IT + 96
        0x240432e0:    f1b14f80    ...O    CMP      r1,#0x40000000
        0x240432e4:    d02b        +.      BEQ      0x2404333e ; HAL_TIM_Base_Start_IT + 142
        0x240432e6:    f2404000    @..@    MOVW     r0,#0x400
        0x240432ea:    f2c40000    ....    MOVT     r0,#0x4000
        0x240432ee:    e024        $.      B        0x2404333a ; HAL_TIM_Base_Start_IT + 138
        0x240432f0:    2001        .       MOVS     r0,#1
        0x240432f2:    4770        pG      BX       lr
        0x240432f4:    f24030ff    @..0    MOV      r0,#0x3ff
        0x240432f8:    f2c40001    ....    MOVT     r0,#0x4001
        0x240432fc:    4281        .B      CMP      r1,r0
        0x240432fe:    dc12        ..      BGT      0x24043326 ; HAL_TIM_Base_Start_IT + 118
        0x24043300:    f6410000    A...    MOVW     r0,#0x1800
        0x24043304:    f2c40000    ....    MOVT     r0,#0x4000
        0x24043308:    4281        .B      CMP      r1,r0
        0x2404330a:    d018        ..      BEQ      0x2404333e ; HAL_TIM_Base_Start_IT + 142
        0x2404330c:    2000        .       MOVS     r0,#0
        0x2404330e:    e012        ..      B        0x24043336 ; HAL_TIM_Base_Start_IT + 134
        0x24043310:    f6400000    @...    MOVW     r0,#0x800
        0x24043314:    f2c40000    ....    MOVT     r0,#0x4000
        0x24043318:    4281        .B      CMP      r1,r0
        0x2404331a:    d010        ..      BEQ      0x2404333e ; HAL_TIM_Base_Start_IT + 142
        0x2404331c:    f6404000    @..@    MOVW     r0,#0xc00
        0x24043320:    f2c40000    ....    MOVT     r0,#0x4000
        0x24043324:    e009        ..      B        0x2404333a ; HAL_TIM_Base_Start_IT + 138
        0x24043326:    f2440000    D...    MOVW     r0,#0x4000
        0x2404332a:    f2c40001    ....    MOVT     r0,#0x4001
        0x2404332e:    4281        .B      CMP      r1,r0
        0x24043330:    d005        ..      BEQ      0x2404333e ; HAL_TIM_Base_Start_IT + 142
        0x24043332:    f2404000    @..@    MOVW     r0,#0x400
        0x24043336:    f2c40001    ....    MOVT     r0,#0x4001
        0x2404333a:    4281        .B      CMP      r1,r0
        0x2404333c:    d10b        ..      BNE      0x24043356 ; HAL_TIM_Base_Start_IT + 166
        0x2404333e:    2207        ."      MOVS     r2,#7
        0x24043340:    6888        .h      LDR      r0,[r1,#8]
        0x24043342:    f2c00201    ....    MOVT     r2,#1
        0x24043346:    4002        .@      ANDS     r2,r2,r0
        0x24043348:    2000        .       MOVS     r0,#0
        0x2404334a:    2a06        .*      CMP      r2,#6
        0x2404334c:    bf18        ..      IT       NE
        0x2404334e:    f5b23f80    ...?    CMPNE    r2,#0x10000
        0x24043352:    d100        ..      BNE      0x24043356 ; HAL_TIM_Base_Start_IT + 166
        0x24043354:    4770        pG      BX       lr
        0x24043356:    6808        .h      LDR      r0,[r1,#0]
        0x24043358:    f0400001    @...    ORR      r0,r0,#1
        0x2404335c:    6008        .`      STR      r0,[r1,#0]
        0x2404335e:    2000        .       MOVS     r0,#0
        0x24043360:    4770        pG      BX       lr
        0x24043362:    0000        ..      MOVS     r0,r0
        0x24043364:    0000        ..      MOVS     r0,r0
        0x24043366:    0000        ..      MOVS     r0,r0
    HAL_TIM_IC_CaptureCallback
        0x24043368:    4770        pG      BX       lr
        0x2404336a:    0000        ..      MOVS     r0,r0
        0x2404336c:    0000        ..      MOVS     r0,r0
        0x2404336e:    0000        ..      MOVS     r0,r0
    HAL_TIM_IRQHandler
        0x24043370:    b510        ..      PUSH     {r4,lr}
        0x24043372:    4604        .F      MOV      r4,r0
        0x24043374:    6800        .h      LDR      r0,[r0,#0]
        0x24043376:    6901        .i      LDR      r1,[r0,#0x10]
        0x24043378:    0789        ..      LSLS     r1,r1,#30
        0x2404337a:    bf44        D.      ITT      MI
        0x2404337c:    68c1        .h      LDRMI    r1,[r0,#0xc]
        0x2404337e:    ea5f7181    _..q    LSLSMI   r1,r1,#30
        0x24043382:    d440        @.      BMI      0x24043406 ; HAL_TIM_IRQHandler + 150
        0x24043384:    6820         h      LDR      r0,[r4,#0]
        0x24043386:    6901        .i      LDR      r1,[r0,#0x10]
        0x24043388:    0749        I.      LSLS     r1,r1,#29
        0x2404338a:    bf44        D.      ITT      MI
        0x2404338c:    68c1        .h      LDRMI    r1,[r0,#0xc]
        0x2404338e:    ea5f7141    _.Aq    LSLSMI   r1,r1,#29
        0x24043392:    d444        D.      BMI      0x2404341e ; HAL_TIM_IRQHandler + 174
        0x24043394:    6820         h      LDR      r0,[r4,#0]
        0x24043396:    6901        .i      LDR      r1,[r0,#0x10]
        0x24043398:    0709        ..      LSLS     r1,r1,#28
        0x2404339a:    bf44        D.      ITT      MI
        0x2404339c:    68c1        .h      LDRMI    r1,[r0,#0xc]
        0x2404339e:    ea5f7101    _..q    LSLSMI   r1,r1,#28
        0x240433a2:    d449        I.      BMI      0x24043438 ; HAL_TIM_IRQHandler + 200
        0x240433a4:    6820         h      LDR      r0,[r4,#0]
        0x240433a6:    6901        .i      LDR      r1,[r0,#0x10]
        0x240433a8:    06c9        ..      LSLS     r1,r1,#27
        0x240433aa:    bf44        D.      ITT      MI
        0x240433ac:    68c1        .h      LDRMI    r1,[r0,#0xc]
        0x240433ae:    ea5f61c1    _..a    LSLSMI   r1,r1,#27
        0x240433b2:    d44d        M.      BMI      0x24043450 ; HAL_TIM_IRQHandler + 224
        0x240433b4:    6820         h      LDR      r0,[r4,#0]
        0x240433b6:    6901        .i      LDR      r1,[r0,#0x10]
        0x240433b8:    07c9        ..      LSLS     r1,r1,#31
        0x240433ba:    bf1c        ..      ITT      NE
        0x240433bc:    68c1        .h      LDRNE    r1,[r0,#0xc]
        0x240433be:    ea5f71c1    _..q    LSLSNE   r1,r1,#31
        0x240433c2:    d152        R.      BNE      0x2404346a ; HAL_TIM_IRQHandler + 250
        0x240433c4:    6820         h      LDR      r0,[r4,#0]
        0x240433c6:    6901        .i      LDR      r1,[r0,#0x10]
        0x240433c8:    0609        ..      LSLS     r1,r1,#24
        0x240433ca:    bf44        D.      ITT      MI
        0x240433cc:    68c1        .h      LDRMI    r1,[r0,#0xc]
        0x240433ce:    ea5f6101    _..a    LSLSMI   r1,r1,#24
        0x240433d2:    d451        Q.      BMI      0x24043478 ; HAL_TIM_IRQHandler + 264
        0x240433d4:    6820         h      LDR      r0,[r4,#0]
        0x240433d6:    6901        .i      LDR      r1,[r0,#0x10]
        0x240433d8:    05c9        ..      LSLS     r1,r1,#23
        0x240433da:    bf44        D.      ITT      MI
        0x240433dc:    68c1        .h      LDRMI    r1,[r0,#0xc]
        0x240433de:    ea5f6101    _..a    LSLSMI   r1,r1,#24
        0x240433e2:    d450        P.      BMI      0x24043486 ; HAL_TIM_IRQHandler + 278
        0x240433e4:    6820         h      LDR      r0,[r4,#0]
        0x240433e6:    6901        .i      LDR      r1,[r0,#0x10]
        0x240433e8:    0649        I.      LSLS     r1,r1,#25
        0x240433ea:    bf44        D.      ITT      MI
        0x240433ec:    68c1        .h      LDRMI    r1,[r0,#0xc]
        0x240433ee:    ea5f6141    _.Aa    LSLSMI   r1,r1,#25
        0x240433f2:    d44f        O.      BMI      0x24043494 ; HAL_TIM_IRQHandler + 292
        0x240433f4:    6820         h      LDR      r0,[r4,#0]
        0x240433f6:    6901        .i      LDR      r1,[r0,#0x10]
        0x240433f8:    0689        ..      LSLS     r1,r1,#26
        0x240433fa:    bf44        D.      ITT      MI
        0x240433fc:    68c1        .h      LDRMI    r1,[r0,#0xc]
        0x240433fe:    ea5f6181    _..a    LSLSMI   r1,r1,#26
        0x24043402:    d44e        N.      BMI      0x240434a2 ; HAL_TIM_IRQHandler + 306
        0x24043404:    bd10        ..      POP      {r4,pc}
        0x24043406:    f06f0102    o...    MVN      r1,#2
        0x2404340a:    6101        .a      STR      r1,[r0,#0x10]
        0x2404340c:    2101        .!      MOVS     r1,#1
        0x2404340e:    7721        !w      STRB     r1,[r4,#0x1c]
        0x24043410:    6980        .i      LDR      r0,[r0,#0x18]
        0x24043412:    0780        ..      LSLS     r0,r0,#30
        0x24043414:    d04c        L.      BEQ      0x240434b0 ; HAL_TIM_IRQHandler + 320
        0x24043416:    4620         F      MOV      r0,r4
        0x24043418:    f7ffffa6    ....    BL       HAL_TIM_IC_CaptureCallback ; 0x24043368
        0x2404341c:    e04e        N.      B        0x240434bc ; HAL_TIM_IRQHandler + 332
        0x2404341e:    f06f0104    o...    MVN      r1,#4
        0x24043422:    6101        .a      STR      r1,[r0,#0x10]
        0x24043424:    2102        .!      MOVS     r1,#2
        0x24043426:    7721        !w      STRB     r1,[r4,#0x1c]
        0x24043428:    6980        .i      LDR      r0,[r0,#0x18]
        0x2404342a:    f4107f40    ..@.    TST      r0,#0x300
        0x2404342e:    d048        H.      BEQ      0x240434c2 ; HAL_TIM_IRQHandler + 338
        0x24043430:    4620         F      MOV      r0,r4
        0x24043432:    f7ffff99    ....    BL       HAL_TIM_IC_CaptureCallback ; 0x24043368
        0x24043436:    e04a        J.      B        0x240434ce ; HAL_TIM_IRQHandler + 350
        0x24043438:    f06f0108    o...    MVN      r1,#8
        0x2404343c:    6101        .a      STR      r1,[r0,#0x10]
        0x2404343e:    2104        .!      MOVS     r1,#4
        0x24043440:    7721        !w      STRB     r1,[r4,#0x1c]
        0x24043442:    69c0        .i      LDR      r0,[r0,#0x1c]
        0x24043444:    0780        ..      LSLS     r0,r0,#30
        0x24043446:    d045        E.      BEQ      0x240434d4 ; HAL_TIM_IRQHandler + 356
        0x24043448:    4620         F      MOV      r0,r4
        0x2404344a:    f7ffff8d    ....    BL       HAL_TIM_IC_CaptureCallback ; 0x24043368
        0x2404344e:    e047        G.      B        0x240434e0 ; HAL_TIM_IRQHandler + 368
        0x24043450:    f06f0110    o...    MVN      r1,#0x10
        0x24043454:    6101        .a      STR      r1,[r0,#0x10]
        0x24043456:    2108        .!      MOVS     r1,#8
        0x24043458:    7721        !w      STRB     r1,[r4,#0x1c]
        0x2404345a:    69c0        .i      LDR      r0,[r0,#0x1c]
        0x2404345c:    f4107f40    ..@.    TST      r0,#0x300
        0x24043460:    d041        A.      BEQ      0x240434e6 ; HAL_TIM_IRQHandler + 374
        0x24043462:    4620         F      MOV      r0,r4
        0x24043464:    f7ffff80    ....    BL       HAL_TIM_IC_CaptureCallback ; 0x24043368
        0x24043468:    e043        C.      B        0x240434f2 ; HAL_TIM_IRQHandler + 386
        0x2404346a:    f06f0101    o...    MVN      r1,#1
        0x2404346e:    6101        .a      STR      r1,[r0,#0x10]
        0x24043470:    4620         F      MOV      r0,r4
        0x24043472:    f000f849    ..I.    BL       HAL_TIM_PeriodElapsedCallback ; 0x24043508
        0x24043476:    e7a5        ..      B        0x240433c4 ; HAL_TIM_IRQHandler + 84
        0x24043478:    f06f0180    o...    MVN      r1,#0x80
        0x2404347c:    6101        .a      STR      r1,[r0,#0x10]
        0x2404347e:    4620         F      MOV      r0,r4
        0x24043480:    f7fffe52    ..R.    BL       HAL_TIMEx_BreakCallback ; 0x24043128
        0x24043484:    e7a6        ..      B        0x240433d4 ; HAL_TIM_IRQHandler + 100
        0x24043486:    f46f7180    o..q    MVN      r1,#0x100
        0x2404348a:    6101        .a      STR      r1,[r0,#0x10]
        0x2404348c:    4620         F      MOV      r0,r4
        0x2404348e:    f7fffe47    ..G.    BL       HAL_TIMEx_Break2Callback ; 0x24043120
        0x24043492:    e7a7        ..      B        0x240433e4 ; HAL_TIM_IRQHandler + 116
        0x24043494:    f06f0140    o.@.    MVN      r1,#0x40
        0x24043498:    6101        .a      STR      r1,[r0,#0x10]
        0x2404349a:    4620         F      MOV      r0,r4
        0x2404349c:    f000f854    ..T.    BL       HAL_TIM_TriggerCallback ; 0x24043548
        0x240434a0:    e7a8        ..      B        0x240433f4 ; HAL_TIM_IRQHandler + 132
        0x240434a2:    f06f0120    o. .    MVN      r1,#0x20
        0x240434a6:    6101        .a      STR      r1,[r0,#0x10]
        0x240434a8:    4620         F      MOV      r0,r4
        0x240434aa:    f7fffe41    ..A.    BL       HAL_TIMEx_CommutCallback ; 0x24043130
        0x240434ae:    bd10        ..      POP      {r4,pc}
        0x240434b0:    4620         F      MOV      r0,r4
        0x240434b2:    f000f821    ..!.    BL       HAL_TIM_OC_DelayElapsedCallback ; 0x240434f8
        0x240434b6:    4620         F      MOV      r0,r4
        0x240434b8:    f000f822    ..".    BL       HAL_TIM_PWM_PulseFinishedCallback ; 0x24043500
        0x240434bc:    2000        .       MOVS     r0,#0
        0x240434be:    7720         w      STRB     r0,[r4,#0x1c]
        0x240434c0:    e760        `.      B        0x24043384 ; HAL_TIM_IRQHandler + 20
        0x240434c2:    4620         F      MOV      r0,r4
        0x240434c4:    f000f818    ....    BL       HAL_TIM_OC_DelayElapsedCallback ; 0x240434f8
        0x240434c8:    4620         F      MOV      r0,r4
        0x240434ca:    f000f819    ....    BL       HAL_TIM_PWM_PulseFinishedCallback ; 0x24043500
        0x240434ce:    2000        .       MOVS     r0,#0
        0x240434d0:    7720         w      STRB     r0,[r4,#0x1c]
        0x240434d2:    e75f        _.      B        0x24043394 ; HAL_TIM_IRQHandler + 36
        0x240434d4:    4620         F      MOV      r0,r4
        0x240434d6:    f000f80f    ....    BL       HAL_TIM_OC_DelayElapsedCallback ; 0x240434f8
        0x240434da:    4620         F      MOV      r0,r4
        0x240434dc:    f000f810    ....    BL       HAL_TIM_PWM_PulseFinishedCallback ; 0x24043500
        0x240434e0:    2000        .       MOVS     r0,#0
        0x240434e2:    7720         w      STRB     r0,[r4,#0x1c]
        0x240434e4:    e75e        ^.      B        0x240433a4 ; HAL_TIM_IRQHandler + 52
        0x240434e6:    4620         F      MOV      r0,r4
        0x240434e8:    f000f806    ....    BL       HAL_TIM_OC_DelayElapsedCallback ; 0x240434f8
        0x240434ec:    4620         F      MOV      r0,r4
        0x240434ee:    f000f807    ....    BL       HAL_TIM_PWM_PulseFinishedCallback ; 0x24043500
        0x240434f2:    2000        .       MOVS     r0,#0
        0x240434f4:    7720         w      STRB     r0,[r4,#0x1c]
        0x240434f6:    e75d        ].      B        0x240433b4 ; HAL_TIM_IRQHandler + 68
    HAL_TIM_OC_DelayElapsedCallback
        0x240434f8:    4770        pG      BX       lr
        0x240434fa:    0000        ..      MOVS     r0,r0
        0x240434fc:    0000        ..      MOVS     r0,r0
        0x240434fe:    0000        ..      MOVS     r0,r0
    HAL_TIM_PWM_PulseFinishedCallback
        0x24043500:    4770        pG      BX       lr
        0x24043502:    0000        ..      MOVS     r0,r0
        0x24043504:    0000        ..      MOVS     r0,r0
        0x24043506:    0000        ..      MOVS     r0,r0
    HAL_TIM_PeriodElapsedCallback
        0x24043508:    b510        ..      PUSH     {r4,lr}
        0x2404350a:    f64411b0    D...    MOV      r1,#0x49b0
        0x2404350e:    6800        .h      LDR      r0,[r0,#0]
        0x24043510:    f2c24104    ...A    MOVT     r1,#0x2404
        0x24043514:    6809        .h      LDR      r1,[r1,#0]
        0x24043516:    4288        .B      CMP      r0,r1
        0x24043518:    d000        ..      BEQ      0x2404351c ; HAL_TIM_PeriodElapsedCallback + 20
        0x2404351a:    bd10        ..      POP      {r4,pc}
        0x2404351c:    f64414ac    D...    MOV      r4,#0x49ac
        0x24043520:    f2c24404    ...D    MOVT     r4,#0x2404
        0x24043524:    8820         .      LDRH     r0,[r4,#0]
        0x24043526:    3001        .0      ADDS     r0,#1
        0x24043528:    8020         .      STRH     r0,[r4,#0]
        0x2404352a:    b281        ..      UXTH     r1,r0
        0x2404352c:    f5b17ffa    ....    CMP      r1,#0x1f4
        0x24043530:    bf18        ..      IT       NE
        0x24043532:    bd10        ..      POPNE    {r4,pc}
        0x24043534:    a002        ..      ADR      r0,{pc}+0xc ; 0x24043540
        0x24043536:    f7fdff93    ....    BL       puts ; 0x24041460
        0x2404353a:    2000        .       MOVS     r0,#0
        0x2404353c:    8020         .      STRH     r0,[r4,#0]
        0x2404353e:    bd10        ..      POP      {r4,pc}
    $d.6
        0x24043540:    74736574    test    DCD    1953719668
        0x24043544:    00000000    ....    DCD    0
    $t.148
    HAL_TIM_TriggerCallback
        0x24043548:    4770        pG      BX       lr
        0x2404354a:    0000        ..      MOVS     r0,r0
        0x2404354c:    0000        ..      MOVS     r0,r0
        0x2404354e:    0000        ..      MOVS     r0,r0
    HAL_UARTEx_DisableFifoMode
        0x24043550:    f8901080    ....    LDRB     r1,[r0,#0x80]
        0x24043554:    2901        .)      CMP      r1,#1
        0x24043556:    d101        ..      BNE      0x2404355c ; HAL_UARTEx_DisableFifoMode + 12
        0x24043558:    2002        .       MOVS     r0,#2
        0x2404355a:    4770        pG      BX       lr
        0x2404355c:    2124        $!      MOVS     r1,#0x24
        0x2404355e:    f8c01084    ....    STR      r1,[r0,#0x84]
        0x24043562:    6802        .h      LDR      r2,[r0,#0]
        0x24043564:    6813        .h      LDR      r3,[r2,#0]
        0x24043566:    6811        .h      LDR      r1,[r2,#0]
        0x24043568:    f0235300    #..S    BIC      r3,r3,#0x20000000
        0x2404356c:    f0210101    !...    BIC      r1,r1,#1
        0x24043570:    6011        .`      STR      r1,[r2,#0]
        0x24043572:    2100        .!      MOVS     r1,#0
        0x24043574:    6641        Af      STR      r1,[r0,#0x64]
        0x24043576:    6013        .`      STR      r3,[r2,#0]
        0x24043578:    2220         "      MOVS     r2,#0x20
        0x2404357a:    f8c02084    ...     STR      r2,[r0,#0x84]
        0x2404357e:    f8801080    ....    STRB     r1,[r0,#0x80]
        0x24043582:    4608        .F      MOV      r0,r1
        0x24043584:    4770        pG      BX       lr
        0x24043586:    0000        ..      MOVS     r0,r0
    HAL_UARTEx_SetRxFifoThreshold
        0x24043588:    b5b0        ..      PUSH     {r4,r5,r7,lr}
        0x2404358a:    4604        .F      MOV      r4,r0
        0x2404358c:    f8900080    ....    LDRB     r0,[r0,#0x80]
        0x24043590:    2801        .(      CMP      r0,#1
        0x24043592:    d101        ..      BNE      0x24043598 ; HAL_UARTEx_SetRxFifoThreshold + 16
        0x24043594:    2002        .       MOVS     r0,#2
        0x24043596:    bdb0        ..      POP      {r4,r5,r7,pc}
        0x24043598:    2001        .       MOVS     r0,#1
        0x2404359a:    f8840080    ....    STRB     r0,[r4,#0x80]
        0x2404359e:    2024        $       MOVS     r0,#0x24
        0x240435a0:    f8c40084    ....    STR      r0,[r4,#0x84]
        0x240435a4:    6820         h      LDR      r0,[r4,#0]
        0x240435a6:    6805        .h      LDR      r5,[r0,#0]
        0x240435a8:    6802        .h      LDR      r2,[r0,#0]
        0x240435aa:    f0220201    "...    BIC      r2,r2,#1
        0x240435ae:    6002        .`      STR      r2,[r0,#0]
        0x240435b0:    6882        .h      LDR      r2,[r0,#8]
        0x240435b2:    f0226260    ".`b    BIC      r2,r2,#0xe000000
        0x240435b6:    4311        .C      ORRS     r1,r1,r2
        0x240435b8:    6081        .`      STR      r1,[r0,#8]
        0x240435ba:    4620         F      MOV      r0,r4
        0x240435bc:    f000fcac    ....    BL       UARTEx_SetNbDataToProcess ; 0x24043f18
        0x240435c0:    6820         h      LDR      r0,[r4,#0]
        0x240435c2:    6005        .`      STR      r5,[r0,#0]
        0x240435c4:    2020                MOVS     r0,#0x20
        0x240435c6:    f8c40084    ....    STR      r0,[r4,#0x84]
        0x240435ca:    2000        .       MOVS     r0,#0
        0x240435cc:    f8840080    ....    STRB     r0,[r4,#0x80]
        0x240435d0:    bdb0        ..      POP      {r4,r5,r7,pc}
        0x240435d2:    0000        ..      MOVS     r0,r0
        0x240435d4:    0000        ..      MOVS     r0,r0
        0x240435d6:    0000        ..      MOVS     r0,r0
    HAL_UARTEx_SetTxFifoThreshold
        0x240435d8:    b5b0        ..      PUSH     {r4,r5,r7,lr}
        0x240435da:    4604        .F      MOV      r4,r0
        0x240435dc:    f8900080    ....    LDRB     r0,[r0,#0x80]
        0x240435e0:    2801        .(      CMP      r0,#1
        0x240435e2:    d101        ..      BNE      0x240435e8 ; HAL_UARTEx_SetTxFifoThreshold + 16
        0x240435e4:    2002        .       MOVS     r0,#2
        0x240435e6:    bdb0        ..      POP      {r4,r5,r7,pc}
        0x240435e8:    2001        .       MOVS     r0,#1
        0x240435ea:    f8840080    ....    STRB     r0,[r4,#0x80]
        0x240435ee:    2024        $       MOVS     r0,#0x24
        0x240435f0:    f8c40084    ....    STR      r0,[r4,#0x84]
        0x240435f4:    6820         h      LDR      r0,[r4,#0]
        0x240435f6:    6805        .h      LDR      r5,[r0,#0]
        0x240435f8:    6802        .h      LDR      r2,[r0,#0]
        0x240435fa:    f0220201    "...    BIC      r2,r2,#1
        0x240435fe:    6002        .`      STR      r2,[r0,#0]
        0x24043600:    6882        .h      LDR      r2,[r0,#8]
        0x24043602:    f0224260    ".`B    BIC      r2,r2,#0xe0000000
        0x24043606:    4311        .C      ORRS     r1,r1,r2
        0x24043608:    6081        .`      STR      r1,[r0,#8]
        0x2404360a:    4620         F      MOV      r0,r4
        0x2404360c:    f000fc84    ....    BL       UARTEx_SetNbDataToProcess ; 0x24043f18
        0x24043610:    6820         h      LDR      r0,[r4,#0]
        0x24043612:    6005        .`      STR      r5,[r0,#0]
        0x24043614:    2020                MOVS     r0,#0x20
        0x24043616:    f8c40084    ....    STR      r0,[r4,#0x84]
        0x2404361a:    2000        .       MOVS     r0,#0
        0x2404361c:    f8840080    ....    STRB     r0,[r4,#0x80]
        0x24043620:    bdb0        ..      POP      {r4,r5,r7,pc}
        0x24043622:    0000        ..      MOVS     r0,r0
        0x24043624:    0000        ..      MOVS     r0,r0
        0x24043626:    0000        ..      MOVS     r0,r0
    HAL_UART_Init
        0x24043628:    b510        ..      PUSH     {r4,lr}
        0x2404362a:    b1b0        ..      CBZ      r0,0x2404365a ; HAL_UART_Init + 50
        0x2404362c:    4604        .F      MOV      r4,r0
        0x2404362e:    f8d00084    ....    LDR      r0,[r0,#0x84]
        0x24043632:    b928        (.      CBNZ     r0,0x24043640 ; HAL_UART_Init + 24
        0x24043634:    2000        .       MOVS     r0,#0
        0x24043636:    f8840080    ....    STRB     r0,[r4,#0x80]
        0x2404363a:    4620         F      MOV      r0,r4
        0x2404363c:    f000f828    ..(.    BL       HAL_UART_MspInit ; 0x24043690
        0x24043640:    2024        $       MOVS     r0,#0x24
        0x24043642:    f8c40084    ....    STR      r0,[r4,#0x84]
        0x24043646:    6820         h      LDR      r0,[r4,#0]
        0x24043648:    6801        .h      LDR      r1,[r0,#0]
        0x2404364a:    f0210101    !...    BIC      r1,r1,#1
        0x2404364e:    6001        .`      STR      r1,[r0,#0]
        0x24043650:    4620         F      MOV      r0,r4
        0x24043652:    f000fd35    ..5.    BL       UART_SetConfig ; 0x240440c0
        0x24043656:    2801        .(      CMP      r0,#1
        0x24043658:    d101        ..      BNE      0x2404365e ; HAL_UART_Init + 54
        0x2404365a:    2001        .       MOVS     r0,#1
        0x2404365c:    bd10        ..      POP      {r4,pc}
        0x2404365e:    6aa0        .j      LDR      r0,[r4,#0x28]
        0x24043660:    b110        ..      CBZ      r0,0x24043668 ; HAL_UART_Init + 64
        0x24043662:    4620         F      MOV      r0,r4
        0x24043664:    f000fc84    ....    BL       UART_AdvFeatureConfig ; 0x24043f70
        0x24043668:    6820         h      LDR      r0,[r4,#0]
        0x2404366a:    6841        Ah      LDR      r1,[r0,#4]
        0x2404366c:    f4214190    !..A    BIC      r1,r1,#0x4800
        0x24043670:    6041        A`      STR      r1,[r0,#4]
        0x24043672:    6881        .h      LDR      r1,[r0,#8]
        0x24043674:    f021012a    !.*.    BIC      r1,r1,#0x2a
        0x24043678:    6081        .`      STR      r1,[r0,#8]
        0x2404367a:    6801        .h      LDR      r1,[r0,#0]
        0x2404367c:    f0410101    A...    ORR      r1,r1,#1
        0x24043680:    6001        .`      STR      r1,[r0,#0]
        0x24043682:    4620         F      MOV      r0,r4
        0x24043684:    f000fce4    ....    BL       UART_CheckIdleState ; 0x24044050
        0x24043688:    bd10        ..      POP      {r4,pc}
        0x2404368a:    0000        ..      MOVS     r0,r0
        0x2404368c:    0000        ..      MOVS     r0,r0
        0x2404368e:    0000        ..      MOVS     r0,r0
    HAL_UART_MspInit
        0x24043690:    b5b0        ..      PUSH     {r4,r5,r7,lr}
        0x24043692:    b0b6        ..      SUB      sp,sp,#0xd8
        0x24043694:    4604        .F      MOV      r4,r0
        0x24043696:    a802        ..      ADD      r0,sp,#8
        0x24043698:    21bc        .!      MOVS     r1,#0xbc
        0x2404369a:    2500        .%      MOVS     r5,#0
        0x2404369c:    e9cd5534    ..4U    STRD     r5,r5,[sp,#0xd0]
        0x240436a0:    e9cd5532    ..2U    STRD     r5,r5,[sp,#0xc8]
        0x240436a4:    9531        1.      STR      r5,[sp,#0xc4]
        0x240436a6:    f7fdfef1    ....    BL       __aeabi_memclr4 ; 0x2404148c
        0x240436aa:    f2410100    A...    MOVW     r1,#0x1000
        0x240436ae:    6820         h      LDR      r0,[r4,#0]
        0x240436b0:    f2c40101    ....    MOVT     r1,#0x4001
        0x240436b4:    4288        .B      CMP      r0,r1
        0x240436b6:    d001        ..      BEQ      0x240436bc ; HAL_UART_MspInit + 44
        0x240436b8:    b036        6.      ADD      sp,sp,#0xd8
        0x240436ba:    bdb0        ..      POP      {r4,r5,r7,pc}
        0x240436bc:    2001        .       MOVS     r0,#1
        0x240436be:    9002        ..      STR      r0,[sp,#8]
        0x240436c0:    a802        ..      ADD      r0,sp,#8
        0x240436c2:    9520         .      STR      r5,[sp,#0x80]
        0x240436c4:    f7fefa84    ....    BL       HAL_RCCEx_PeriphCLKConfig ; 0x24041bd0
        0x240436c8:    b108        ..      CBZ      r0,0x240436ce ; HAL_UART_MspInit + 62
        0x240436ca:    f7fdff45    ..E.    BL       Error_Handler ; 0x24041558
        0x240436ce:    f24440e0    D..@    MOV      r0,#0x44e0
        0x240436d2:    f6c50002    ....    MOVT     r0,#0x5802
        0x240436d6:    6901        .i      LDR      r1,[r0,#0x10]
        0x240436d8:    f0410110    A...    ORR      r1,r1,#0x10
        0x240436dc:    6101        .a      STR      r1,[r0,#0x10]
        0x240436de:    6901        .i      LDR      r1,[r0,#0x10]
        0x240436e0:    f0010110    ....    AND      r1,r1,#0x10
        0x240436e4:    9101        ..      STR      r1,[sp,#4]
        0x240436e6:    9901        ..      LDR      r1,[sp,#4]
        0x240436e8:    6801        .h      LDR      r1,[r0,#0]
        0x240436ea:    f0410101    A...    ORR      r1,r1,#1
        0x240436ee:    6001        .`      STR      r1,[r0,#0]
        0x240436f0:    6800        .h      LDR      r0,[r0,#0]
        0x240436f2:    a931        1.      ADD      r1,sp,#0xc4
        0x240436f4:    f0000001    ....    AND      r0,r0,#1
        0x240436f8:    9001        ..      STR      r0,[sp,#4]
        0x240436fa:    9801        ..      LDR      r0,[sp,#4]
        0x240436fc:    f44f60c0    O..`    MOV      r0,#0x600
        0x24043700:    9031        1.      STR      r0,[sp,#0xc4]
        0x24043702:    2002        .       MOVS     r0,#2
        0x24043704:    9032        2.      STR      r0,[sp,#0xc8]
        0x24043706:    2000        .       MOVS     r0,#0
        0x24043708:    e9cd0033    ..3.    STRD     r0,r0,[sp,#0xcc]
        0x2404370c:    2007        .       MOVS     r0,#7
        0x2404370e:    9035        5.      STR      r0,[sp,#0xd4]
        0x24043710:    2000        .       MOVS     r0,#0
        0x24043712:    f6c50002    ....    MOVT     r0,#0x5802
        0x24043716:    f7fdff77    ..w.    BL       HAL_GPIO_Init ; 0x24041608
        0x2404371a:    b036        6.      ADD      sp,sp,#0xd8
        0x2404371c:    bdb0        ..      POP      {r4,r5,r7,pc}
        0x2404371e:    0000        ..      MOVS     r0,r0
    HAL_UART_Transmit
        0x24043720:    e92d43f0    -..C    PUSH     {r4-r9,lr}
        0x24043724:    b081        ..      SUB      sp,sp,#4
        0x24043726:    4604        .F      MOV      r4,r0
        0x24043728:    f8d00084    ....    LDR      r0,[r0,#0x84]
        0x2404372c:    2820         (      CMP      r0,#0x20
        0x2404372e:    d10b        ..      BNE      0x24043748 ; HAL_UART_Transmit + 40
        0x24043730:    460e        .F      MOV      r6,r1
        0x24043732:    2900        .)      CMP      r1,#0
        0x24043734:    f04f0001    O...    MOV      r0,#1
        0x24043738:    d05c        \.      BEQ      0x240437f4 ; HAL_UART_Transmit + 212
        0x2404373a:    4617        .F      MOV      r7,r2
        0x2404373c:    2a00        .*      CMP      r2,#0
        0x2404373e:    d059        Y.      BEQ      0x240437f4 ; HAL_UART_Transmit + 212
        0x24043740:    f8940080    ....    LDRB     r0,[r4,#0x80]
        0x24043744:    2801        .(      CMP      r0,#1
        0x24043746:    d103        ..      BNE      0x24043750 ; HAL_UART_Transmit + 48
        0x24043748:    2002        .       MOVS     r0,#2
        0x2404374a:    b001        ..      ADD      sp,sp,#4
        0x2404374c:    e8bd83f0    ....    POP      {r4-r9,pc}
        0x24043750:    461d        .F      MOV      r5,r3
        0x24043752:    2001        .       MOVS     r0,#1
        0x24043754:    f8840080    ....    STRB     r0,[r4,#0x80]
        0x24043758:    f04f0900    O...    MOV      r9,#0
        0x2404375c:    f8c4908c    ....    STR      r9,[r4,#0x8c]
        0x24043760:    2021        !       MOVS     r0,#0x21
        0x24043762:    f8c40084    ....    STR      r0,[r4,#0x84]
        0x24043766:    f7fef82f    ../.    BL       HAL_GetTick ; 0x240417c8
        0x2404376a:    f8a47054    ..Tp    STRH     r7,[r4,#0x54]
        0x2404376e:    f8a47056    ..Vp    STRH     r7,[r4,#0x56]
        0x24043772:    4607        .F      MOV      r7,r0
        0x24043774:    68a1        .h      LDR      r1,[r4,#8]
        0x24043776:    f5b15f80    ..._    CMP      r1,#0x1000
        0x2404377a:    d107        ..      BNE      0x2404378c ; HAL_UART_Transmit + 108
        0x2404377c:    6920         i      LDR      r0,[r4,#0x10]
        0x2404377e:    2800        .(      CMP      r0,#0
        0x24043780:    bf1c        ..      ITT      NE
        0x24043782:    4630        0F      MOVNE    r0,r6
        0x24043784:    464e        NF      MOVNE    r6,r9
        0x24043786:    46b0        .F      MOV      r8,r6
        0x24043788:    4606        .F      MOV      r6,r0
        0x2404378a:    e001        ..      B        0x24043790 ; HAL_UART_Transmit + 112
        0x2404378c:    f04f0800    O...    MOV      r8,#0
        0x24043790:    f8849080    ....    STRB     r9,[r4,#0x80]
        0x24043794:    e009        ..      B        0x240437aa ; HAL_UART_Transmit + 138
        0x24043796:    bf00        ..      NOP      
        0x24043798:    6820         h      LDR      r0,[r4,#0]
        0x2404379a:    f8161b01    ....    LDRB     r1,[r6],#1
        0x2404379e:    6281        .b      STR      r1,[r0,#0x28]
        0x240437a0:    f8b40056    ..V.    LDRH     r0,[r4,#0x56]
        0x240437a4:    3801        .8      SUBS     r0,#1
        0x240437a6:    f8a40056    ..V.    STRH     r0,[r4,#0x56]
        0x240437aa:    f8b40056    ..V.    LDRH     r0,[r4,#0x56]
        0x240437ae:    b188        ..      CBZ      r0,0x240437d4 ; HAL_UART_Transmit + 180
        0x240437b0:    2180        .!      MOVS     r1,#0x80
        0x240437b2:    2200        ."      MOVS     r2,#0
        0x240437b4:    4620         F      MOV      r0,r4
        0x240437b6:    463b        ;F      MOV      r3,r7
        0x240437b8:    9500        ..      STR      r5,[sp,#0]
        0x240437ba:    f000ff45    ..E.    BL       UART_WaitOnFlagUntilTimeout ; 0x24044648
        0x240437be:    b988        ..      CBNZ     r0,0x240437e4 ; HAL_UART_Transmit + 196
        0x240437c0:    2e00        ..      CMP      r6,#0
        0x240437c2:    d1e9        ..      BNE      0x24043798 ; HAL_UART_Transmit + 120
        0x240437c4:    f8380b02    8...    LDRH     r0,[r8],#2
        0x240437c8:    6821        !h      LDR      r1,[r4,#0]
        0x240437ca:    2600        .&      MOVS     r6,#0
        0x240437cc:    f36f205f    o._     BFC      r0,#9,#23
        0x240437d0:    6288        .b      STR      r0,[r1,#0x28]
        0x240437d2:    e7e5        ..      B        0x240437a0 ; HAL_UART_Transmit + 128
        0x240437d4:    2140        @!      MOVS     r1,#0x40
        0x240437d6:    2200        ."      MOVS     r2,#0
        0x240437d8:    4620         F      MOV      r0,r4
        0x240437da:    463b        ;F      MOV      r3,r7
        0x240437dc:    9500        ..      STR      r5,[sp,#0]
        0x240437de:    f000ff33    ..3.    BL       UART_WaitOnFlagUntilTimeout ; 0x24044648
        0x240437e2:    b118        ..      CBZ      r0,0x240437ec ; HAL_UART_Transmit + 204
        0x240437e4:    2003        .       MOVS     r0,#3
        0x240437e6:    b001        ..      ADD      sp,sp,#4
        0x240437e8:    e8bd83f0    ....    POP      {r4-r9,pc}
        0x240437ec:    2020                MOVS     r0,#0x20
        0x240437ee:    f8c40084    ....    STR      r0,[r4,#0x84]
        0x240437f2:    2000        .       MOVS     r0,#0
        0x240437f4:    b001        ..      ADD      sp,sp,#4
        0x240437f6:    e8bd83f0    ....    POP      {r4-r9,pc}
        0x240437fa:    0000        ..      MOVS     r0,r0
        0x240437fc:    0000        ..      MOVS     r0,r0
        0x240437fe:    0000        ..      MOVS     r0,r0
    HardFault_Handler
        0x24043800:    e7fe        ..      B        HardFault_Handler ; 0x24043800
        0x24043802:    0000        ..      MOVS     r0,r0
        0x24043804:    0000        ..      MOVS     r0,r0
        0x24043806:    0000        ..      MOVS     r0,r0
    MX_GPIO_Init
        0x24043808:    b580        ..      PUSH     {r7,lr}
        0x2404380a:    b086        ..      SUB      sp,sp,#0x18
        0x2404380c:    2000        .       MOVS     r0,#0
        0x2404380e:    9005        ..      STR      r0,[sp,#0x14]
        0x24043810:    e9cd0003    ....    STRD     r0,r0,[sp,#0xc]
        0x24043814:    e9cd0001    ....    STRD     r0,r0,[sp,#4]
        0x24043818:    f24440e0    D..@    MOV      r0,#0x44e0
        0x2404381c:    f6c50002    ....    MOVT     r0,#0x5802
        0x24043820:    6801        .h      LDR      r1,[r0,#0]
        0x24043822:    f0410101    A...    ORR      r1,r1,#1
        0x24043826:    6001        .`      STR      r1,[r0,#0]
        0x24043828:    6800        .h      LDR      r0,[r0,#0]
        0x2404382a:    a901        ..      ADD      r1,sp,#4
        0x2404382c:    f0000001    ....    AND      r0,r0,#1
        0x24043830:    9000        ..      STR      r0,[sp,#0]
        0x24043832:    9800        ..      LDR      r0,[sp,#0]
        0x24043834:    2004        .       MOVS     r0,#4
        0x24043836:    9001        ..      STR      r0,[sp,#4]
        0x24043838:    2001        .       MOVS     r0,#1
        0x2404383a:    9003        ..      STR      r0,[sp,#0xc]
        0x2404383c:    2000        .       MOVS     r0,#0
        0x2404383e:    f6c50002    ....    MOVT     r0,#0x5802
        0x24043842:    f7fdfee1    ....    BL       HAL_GPIO_Init ; 0x24041608
        0x24043846:    b006        ..      ADD      sp,sp,#0x18
        0x24043848:    bd80        ..      POP      {r7,pc}
        0x2404384a:    0000        ..      MOVS     r0,r0
        0x2404384c:    0000        ..      MOVS     r0,r0
        0x2404384e:    0000        ..      MOVS     r0,r0
    MX_TIM6_Init
        0x24043850:    b510        ..      PUSH     {r4,lr}
        0x24043852:    b084        ..      SUB      sp,sp,#0x10
        0x24043854:    f64410b0    D...    MOV      r0,#0x49b0
        0x24043858:    f2410100    A...    MOVW     r1,#0x1000
        0x2404385c:    f2c24004    ...@    MOVT     r0,#0x2404
        0x24043860:    2400        .$      MOVS     r4,#0
        0x24043862:    9403        ..      STR      r4,[sp,#0xc]
        0x24043864:    f2c40100    ....    MOVT     r1,#0x4000
        0x24043868:    e9cd4401    ...D    STRD     r4,r4,[sp,#4]
        0x2404386c:    6001        .`      STR      r1,[r0,#0]
        0x2404386e:    21ef        .!      MOVS     r1,#0xef
        0x24043870:    e9c01401    ....    STRD     r1,r4,[r0,#4]
        0x24043874:    f24031e7    @..1    MOV      r1,#0x3e7
        0x24043878:    60c1        .`      STR      r1,[r0,#0xc]
        0x2404387a:    6184        .a      STR      r4,[r0,#0x18]
        0x2404387c:    f7fffcc4    ....    BL       HAL_TIM_Base_Init ; 0x24043208
        0x24043880:    b108        ..      CBZ      r0,0x24043886 ; MX_TIM6_Init + 54
        0x24043882:    f7fdfe69    ..i.    BL       Error_Handler ; 0x24041558
        0x24043886:    f64410b0    D...    MOV      r0,#0x49b0
        0x2404388a:    a901        ..      ADD      r1,sp,#4
        0x2404388c:    f2c24004    ...@    MOVT     r0,#0x2404
        0x24043890:    9401        ..      STR      r4,[sp,#4]
        0x24043892:    9403        ..      STR      r4,[sp,#0xc]
        0x24043894:    f7fffc50    ..P.    BL       HAL_TIMEx_MasterConfigSynchronization ; 0x24043138
        0x24043898:    b108        ..      CBZ      r0,0x2404389e ; MX_TIM6_Init + 78
        0x2404389a:    f7fdfe5d    ..].    BL       Error_Handler ; 0x24041558
        0x2404389e:    b004        ..      ADD      sp,sp,#0x10
        0x240438a0:    bd10        ..      POP      {r4,pc}
        0x240438a2:    0000        ..      MOVS     r0,r0
        0x240438a4:    0000        ..      MOVS     r0,r0
        0x240438a6:    0000        ..      MOVS     r0,r0
    MX_USART1_UART_Init
        0x240438a8:    b580        ..      PUSH     {r7,lr}
        0x240438aa:    f64410fc    D...    MOV      r0,#0x49fc
        0x240438ae:    f2410100    A...    MOVW     r1,#0x1000
        0x240438b2:    f2c24004    ...@    MOVT     r0,#0x2404
        0x240438b6:    f2484280    H..B    MOV      r2,#0x8480
        0x240438ba:    f2c40101    ....    MOVT     r1,#0x4001
        0x240438be:    f2c0021e    ....    MOVT     r2,#0x1e
        0x240438c2:    e9c01200    ....    STRD     r1,r2,[r0,#0]
        0x240438c6:    2100        .!      MOVS     r1,#0
        0x240438c8:    6101        .a      STR      r1,[r0,#0x10]
        0x240438ca:    e9c01102    ....    STRD     r1,r1,[r0,#8]
        0x240438ce:    220c        ."      MOVS     r2,#0xc
        0x240438d0:    e9c02105    ...!    STRD     r2,r1,[r0,#0x14]
        0x240438d4:    e9c01107    ....    STRD     r1,r1,[r0,#0x1c]
        0x240438d8:    e9c01109    ....    STRD     r1,r1,[r0,#0x24]
        0x240438dc:    f7fffea4    ....    BL       HAL_UART_Init ; 0x24043628
        0x240438e0:    b108        ..      CBZ      r0,0x240438e6 ; MX_USART1_UART_Init + 62
        0x240438e2:    f7fdfe39    ..9.    BL       Error_Handler ; 0x24041558
        0x240438e6:    f64410fc    D...    MOV      r0,#0x49fc
        0x240438ea:    2100        .!      MOVS     r1,#0
        0x240438ec:    f2c24004    ...@    MOVT     r0,#0x2404
        0x240438f0:    f7fffe72    ..r.    BL       HAL_UARTEx_SetTxFifoThreshold ; 0x240435d8
        0x240438f4:    b108        ..      CBZ      r0,0x240438fa ; MX_USART1_UART_Init + 82
        0x240438f6:    f7fdfe2f    ../.    BL       Error_Handler ; 0x24041558
        0x240438fa:    f64410fc    D...    MOV      r0,#0x49fc
        0x240438fe:    2100        .!      MOVS     r1,#0
        0x24043900:    f2c24004    ...@    MOVT     r0,#0x2404
        0x24043904:    f7fffe40    ..@.    BL       HAL_UARTEx_SetRxFifoThreshold ; 0x24043588
        0x24043908:    b108        ..      CBZ      r0,0x2404390e ; MX_USART1_UART_Init + 102
        0x2404390a:    f7fdfe25    ..%.    BL       Error_Handler ; 0x24041558
        0x2404390e:    f64410fc    D...    MOV      r0,#0x49fc
        0x24043912:    f2c24004    ...@    MOVT     r0,#0x2404
        0x24043916:    f7fffe1b    ....    BL       HAL_UARTEx_DisableFifoMode ; 0x24043550
        0x2404391a:    2800        .(      CMP      r0,#0
        0x2404391c:    bf08        ..      IT       EQ
        0x2404391e:    bd80        ..      POPEQ    {r7,pc}
        0x24043920:    f7fdfe1a    ....    BL       Error_Handler ; 0x24041558
        0x24043924:    bd80        ..      POP      {r7,pc}
        0x24043926:    0000        ..      MOVS     r0,r0
    MemManage_Handler
        0x24043928:    e7fe        ..      B        MemManage_Handler ; 0x24043928
        0x2404392a:    0000        ..      MOVS     r0,r0
        0x2404392c:    0000        ..      MOVS     r0,r0
        0x2404392e:    0000        ..      MOVS     r0,r0
    NMI_Handler
        0x24043930:    e7fe        ..      B        NMI_Handler ; 0x24043930
        0x24043932:    0000        ..      MOVS     r0,r0
        0x24043934:    0000        ..      MOVS     r0,r0
        0x24043936:    0000        ..      MOVS     r0,r0
    NVIC_EncodePriority
        0x24043938:    f0000007    ....    AND      r0,r0,#7
        0x2404393c:    f04f3cff    O..<    MOV      r12,#0xffffffff
        0x24043940:    f0800307    ....    EOR      r3,r0,#7
        0x24043944:    2b04        .+      CMP      r3,#4
        0x24043946:    bf28        (.      IT       CS
        0x24043948:    2304        .#      MOVCS    r3,#4
        0x2404394a:    3803        .8      SUBS     r0,#3
        0x2404394c:    bf38        8.      IT       CC
        0x2404394e:    2000        .       MOVCC    r0,#0
        0x24043950:    fa0cf303    ....    LSL      r3,r12,r3
        0x24043954:    4399        .C      BICS     r1,r1,r3
        0x24043956:    fa0cf300    ....    LSL      r3,r12,r0
        0x2404395a:    fa01f000    ....    LSL      r0,r1,r0
        0x2404395e:    ea220103    "...    BIC      r1,r2,r3
        0x24043962:    4308        .C      ORRS     r0,r0,r1
        0x24043964:    4770        pG      BX       lr
        0x24043966:    0000        ..      MOVS     r0,r0
    PendSV_Handler
        0x24043968:    4770        pG      BX       lr
        0x2404396a:    0000        ..      MOVS     r0,r0
        0x2404396c:    0000        ..      MOVS     r0,r0
        0x2404396e:    0000        ..      MOVS     r0,r0
    RCCEx_PLL2_Config
        0x24043970:    b5f0        ..      PUSH     {r4-r7,lr}
        0x24043972:    b081        ..      SUB      sp,sp,#4
        0x24043974:    f244472c    D.,G    MOV      r7,#0x442c
        0x24043978:    f6c50702    ....    MOVT     r7,#0x5802
        0x2404397c:    f8572c04    W..,    LDR      r2,[r7,#-4]
        0x24043980:    f0020203    ....    AND      r2,r2,#3
        0x24043984:    2a03        .*      CMP      r2,#3
        0x24043986:    d102        ..      BNE      0x2404398e ; RCCEx_PLL2_Config + 30
        0x24043988:    2001        .       MOVS     r0,#1
        0x2404398a:    b001        ..      ADD      sp,sp,#4
        0x2404398c:    bdf0        ..      POP      {r4-r7,pc}
        0x2404398e:    4605        .F      MOV      r5,r0
        0x24043990:    f8570c2c    W.,.    LDR      r0,[r7,#-0x2c]
        0x24043994:    460c        .F      MOV      r4,r1
        0x24043996:    f0206080     ..`    BIC      r0,r0,#0x4000000
        0x2404399a:    f8470c2c    G.,.    STR      r0,[r7,#-0x2c]
        0x2404399e:    f7fdff13    ....    BL       HAL_GetTick ; 0x240417c8
        0x240439a2:    4606        .F      MOV      r6,r0
        0x240439a4:    f8570c2c    W.,.    LDR      r0,[r7,#-0x2c]
        0x240439a8:    0100        ..      LSLS     r0,r0,#4
        0x240439aa:    d505        ..      BPL      0x240439b8 ; RCCEx_PLL2_Config + 72
        0x240439ac:    f7fdff0c    ....    BL       HAL_GetTick ; 0x240417c8
        0x240439b0:    1b80        ..      SUBS     r0,r0,r6
        0x240439b2:    2802        .(      CMP      r0,#2
        0x240439b4:    d9f6        ..      BLS      0x240439a4 ; RCCEx_PLL2_Config + 52
        0x240439b6:    e064        d.      B        0x24043a82 ; RCCEx_PLL2_Config + 274
        0x240439b8:    f8570c04    W...    LDR      r0,[r7,#-4]
        0x240439bc:    68ee        .h      LDR      r6,[r5,#0xc]
        0x240439be:    e895000e    ....    LDM      r5,{r1-r3}
        0x240439c2:    f420307c     .|0    BIC      r0,r0,#0x3f000
        0x240439c6:    2c01        .,      CMP      r4,#1
        0x240439c8:    ea403001    @..0    ORR      r0,r0,r1,LSL #12
        0x240439cc:    f1a20101    ....    SUB      r1,r2,#1
        0x240439d0:    f36f215f    o._!    BFC      r1,#9,#23
        0x240439d4:    f44f427e    O.~B    MOV      r2,#0xfe00
        0x240439d8:    eb022243    ..C"    ADD      r2,r2,r3,LSL #9
        0x240439dc:    f8470c04    G...    STR      r0,[r7,#-4]
        0x240439e0:    b292        ..      UXTH     r2,r2
        0x240439e2:    f04f43fe    O..C    MOV      r3,#0x7f000000
        0x240439e6:    eb020001    ....    ADD      r0,r2,r1
        0x240439ea:    f44f01fe    O...    MOV      r1,#0x7f0000
        0x240439ee:    692a        *i      LDR      r2,[r5,#0x10]
        0x240439f0:    eb014106    ...A    ADD      r1,r1,r6,LSL #16
        0x240439f4:    f40101fe    ....    AND      r1,r1,#0x7f0000
        0x240439f8:    eb036202    ...b    ADD      r2,r3,r2,LSL #24
        0x240439fc:    4408        .D      ADD      r0,r0,r1
        0x240439fe:    f00241fe    ...A    AND      r1,r2,#0x7f000000
        0x24043a02:    4408        .D      ADD      r0,r0,r1
        0x24043a04:    60f8        .`      STR      r0,[r7,#0xc]
        0x24043a06:    6838        8h      LDR      r0,[r7,#0]
        0x24043a08:    6969        ii      LDR      r1,[r5,#0x14]
        0x24043a0a:    f02000c0     ...    BIC      r0,r0,#0xc0
        0x24043a0e:    ea400001    @...    ORR      r0,r0,r1
        0x24043a12:    6038        8`      STR      r0,[r7,#0]
        0x24043a14:    6838        8h      LDR      r0,[r7,#0]
        0x24043a16:    69a9        .i      LDR      r1,[r5,#0x18]
        0x24043a18:    f0200020     . .    BIC      r0,r0,#0x20
        0x24043a1c:    ea400001    @...    ORR      r0,r0,r1
        0x24043a20:    6038        8`      STR      r0,[r7,#0]
        0x24043a22:    6838        8h      LDR      r0,[r7,#0]
        0x24043a24:    f64f71f8    O..q    MOV      r1,#0xfff8
        0x24043a28:    f0200010     ...    BIC      r0,r0,#0x10
        0x24043a2c:    6038        8`      STR      r0,[r7,#0]
        0x24043a2e:    6938        8i      LDR      r0,[r7,#0x10]
        0x24043a30:    69ea        .i      LDR      r2,[r5,#0x1c]
        0x24043a32:    ea200001     ...    BIC      r0,r0,r1
        0x24043a36:    f44f1100    O...    MOV      r1,#0x200000
        0x24043a3a:    ea4000c2    @...    ORR      r0,r0,r2,LSL #3
        0x24043a3e:    6138        8a      STR      r0,[r7,#0x10]
        0x24043a40:    6838        8h      LDR      r0,[r7,#0]
        0x24043a42:    bf08        ..      IT       EQ
        0x24043a44:    f44f1180    O...    MOVEQ    r1,#0x100000
        0x24043a48:    f0400010    @...    ORR      r0,r0,#0x10
        0x24043a4c:    2c00        .,      CMP      r4,#0
        0x24043a4e:    6038        8`      STR      r0,[r7,#0]
        0x24043a50:    bf08        ..      IT       EQ
        0x24043a52:    f44f2100    O..!    MOVEQ    r1,#0x80000
        0x24043a56:    6838        8h      LDR      r0,[r7,#0]
        0x24043a58:    4308        .C      ORRS     r0,r0,r1
        0x24043a5a:    6038        8`      STR      r0,[r7,#0]
        0x24043a5c:    f8570c2c    W.,.    LDR      r0,[r7,#-0x2c]
        0x24043a60:    f0406080    @..`    ORR      r0,r0,#0x4000000
        0x24043a64:    f8470c2c    G.,.    STR      r0,[r7,#-0x2c]
        0x24043a68:    f7fdfeae    ....    BL       HAL_GetTick ; 0x240417c8
        0x24043a6c:    4604        .F      MOV      r4,r0
        0x24043a6e:    bf00        ..      NOP      
        0x24043a70:    f8570c2c    W.,.    LDR      r0,[r7,#-0x2c]
        0x24043a74:    0100        ..      LSLS     r0,r0,#4
        0x24043a76:    d407        ..      BMI      0x24043a88 ; RCCEx_PLL2_Config + 280
        0x24043a78:    f7fdfea6    ....    BL       HAL_GetTick ; 0x240417c8
        0x24043a7c:    1b00        ..      SUBS     r0,r0,r4
        0x24043a7e:    2803        .(      CMP      r0,#3
        0x24043a80:    d3f6        ..      BCC      0x24043a70 ; RCCEx_PLL2_Config + 256
        0x24043a82:    2003        .       MOVS     r0,#3
        0x24043a84:    b001        ..      ADD      sp,sp,#4
        0x24043a86:    bdf0        ..      POP      {r4-r7,pc}
        0x24043a88:    2000        .       MOVS     r0,#0
        0x24043a8a:    b001        ..      ADD      sp,sp,#4
        0x24043a8c:    bdf0        ..      POP      {r4-r7,pc}
        0x24043a8e:    0000        ..      MOVS     r0,r0
    RCCEx_PLL3_Config
        0x24043a90:    b5f0        ..      PUSH     {r4-r7,lr}
        0x24043a92:    b081        ..      SUB      sp,sp,#4
        0x24043a94:    f244472c    D.,G    MOV      r7,#0x442c
        0x24043a98:    f6c50702    ....    MOVT     r7,#0x5802
        0x24043a9c:    f8572c04    W..,    LDR      r2,[r7,#-4]
        0x24043aa0:    f0020203    ....    AND      r2,r2,#3
        0x24043aa4:    2a03        .*      CMP      r2,#3
        0x24043aa6:    d102        ..      BNE      0x24043aae ; RCCEx_PLL3_Config + 30
        0x24043aa8:    2001        .       MOVS     r0,#1
        0x24043aaa:    b001        ..      ADD      sp,sp,#4
        0x24043aac:    bdf0        ..      POP      {r4-r7,pc}
        0x24043aae:    4605        .F      MOV      r5,r0
        0x24043ab0:    f8570c2c    W.,.    LDR      r0,[r7,#-0x2c]
        0x24043ab4:    460c        .F      MOV      r4,r1
        0x24043ab6:    f0205080     ..P    BIC      r0,r0,#0x10000000
        0x24043aba:    f8470c2c    G.,.    STR      r0,[r7,#-0x2c]
        0x24043abe:    f7fdfe83    ....    BL       HAL_GetTick ; 0x240417c8
        0x24043ac2:    4606        .F      MOV      r6,r0
        0x24043ac4:    f8570c2c    W.,.    LDR      r0,[r7,#-0x2c]
        0x24043ac8:    0080        ..      LSLS     r0,r0,#2
        0x24043aca:    d505        ..      BPL      0x24043ad8 ; RCCEx_PLL3_Config + 72
        0x24043acc:    f7fdfe7c    ..|.    BL       HAL_GetTick ; 0x240417c8
        0x24043ad0:    1b80        ..      SUBS     r0,r0,r6
        0x24043ad2:    2802        .(      CMP      r0,#2
        0x24043ad4:    d9f6        ..      BLS      0x24043ac4 ; RCCEx_PLL3_Config + 52
        0x24043ad6:    e064        d.      B        0x24043ba2 ; RCCEx_PLL3_Config + 274
        0x24043ad8:    f8570c04    W...    LDR      r0,[r7,#-4]
        0x24043adc:    68ee        .h      LDR      r6,[r5,#0xc]
        0x24043ade:    e895000e    ....    LDM      r5,{r1-r3}
        0x24043ae2:    f020707c     .|p    BIC      r0,r0,#0x3f00000
        0x24043ae6:    2c01        .,      CMP      r4,#1
        0x24043ae8:    ea405001    @..P    ORR      r0,r0,r1,LSL #20
        0x24043aec:    f1a20101    ....    SUB      r1,r2,#1
        0x24043af0:    f36f215f    o._!    BFC      r1,#9,#23
        0x24043af4:    f44f427e    O.~B    MOV      r2,#0xfe00
        0x24043af8:    eb022243    ..C"    ADD      r2,r2,r3,LSL #9
        0x24043afc:    f8470c04    G...    STR      r0,[r7,#-4]
        0x24043b00:    b292        ..      UXTH     r2,r2
        0x24043b02:    f04f43fe    O..C    MOV      r3,#0x7f000000
        0x24043b06:    eb020001    ....    ADD      r0,r2,r1
        0x24043b0a:    f44f01fe    O...    MOV      r1,#0x7f0000
        0x24043b0e:    692a        *i      LDR      r2,[r5,#0x10]
        0x24043b10:    eb014106    ...A    ADD      r1,r1,r6,LSL #16
        0x24043b14:    f40101fe    ....    AND      r1,r1,#0x7f0000
        0x24043b18:    eb036202    ...b    ADD      r2,r3,r2,LSL #24
        0x24043b1c:    4408        .D      ADD      r0,r0,r1
        0x24043b1e:    f00241fe    ...A    AND      r1,r2,#0x7f000000
        0x24043b22:    4408        .D      ADD      r0,r0,r1
        0x24043b24:    6178        xa      STR      r0,[r7,#0x14]
        0x24043b26:    6838        8h      LDR      r0,[r7,#0]
        0x24043b28:    6969        ii      LDR      r1,[r5,#0x14]
        0x24043b2a:    f4206040     .@`    BIC      r0,r0,#0xc00
        0x24043b2e:    ea400001    @...    ORR      r0,r0,r1
        0x24043b32:    6038        8`      STR      r0,[r7,#0]
        0x24043b34:    6838        8h      LDR      r0,[r7,#0]
        0x24043b36:    69a9        .i      LDR      r1,[r5,#0x18]
        0x24043b38:    f4207000     ..p    BIC      r0,r0,#0x200
        0x24043b3c:    ea400001    @...    ORR      r0,r0,r1
        0x24043b40:    6038        8`      STR      r0,[r7,#0]
        0x24043b42:    6838        8h      LDR      r0,[r7,#0]
        0x24043b44:    f64f71f8    O..q    MOV      r1,#0xfff8
        0x24043b48:    f4207080     ..p    BIC      r0,r0,#0x100
        0x24043b4c:    6038        8`      STR      r0,[r7,#0]
        0x24043b4e:    69b8        .i      LDR      r0,[r7,#0x18]
        0x24043b50:    69ea        .i      LDR      r2,[r5,#0x1c]
        0x24043b52:    ea200001     ...    BIC      r0,r0,r1
        0x24043b56:    f04f7180    O..q    MOV      r1,#0x1000000
        0x24043b5a:    ea4000c2    @...    ORR      r0,r0,r2,LSL #3
        0x24043b5e:    61b8        .a      STR      r0,[r7,#0x18]
        0x24043b60:    6838        8h      LDR      r0,[r7,#0]
        0x24043b62:    bf08        ..      IT       EQ
        0x24043b64:    f44f0100    O...    MOVEQ    r1,#0x800000
        0x24043b68:    f4407080    @..p    ORR      r0,r0,#0x100
        0x24043b6c:    2c00        .,      CMP      r4,#0
        0x24043b6e:    6038        8`      STR      r0,[r7,#0]
        0x24043b70:    bf08        ..      IT       EQ
        0x24043b72:    f44f0180    O...    MOVEQ    r1,#0x400000
        0x24043b76:    6838        8h      LDR      r0,[r7,#0]
        0x24043b78:    4308        .C      ORRS     r0,r0,r1
        0x24043b7a:    6038        8`      STR      r0,[r7,#0]
        0x24043b7c:    f8570c2c    W.,.    LDR      r0,[r7,#-0x2c]
        0x24043b80:    f0405080    @..P    ORR      r0,r0,#0x10000000
        0x24043b84:    f8470c2c    G.,.    STR      r0,[r7,#-0x2c]
        0x24043b88:    f7fdfe1e    ....    BL       HAL_GetTick ; 0x240417c8
        0x24043b8c:    4604        .F      MOV      r4,r0
        0x24043b8e:    bf00        ..      NOP      
        0x24043b90:    f8570c2c    W.,.    LDR      r0,[r7,#-0x2c]
        0x24043b94:    0080        ..      LSLS     r0,r0,#2
        0x24043b96:    d407        ..      BMI      0x24043ba8 ; RCCEx_PLL3_Config + 280
        0x24043b98:    f7fdfe16    ....    BL       HAL_GetTick ; 0x240417c8
        0x24043b9c:    1b00        ..      SUBS     r0,r0,r4
        0x24043b9e:    2803        .(      CMP      r0,#3
        0x24043ba0:    d3f6        ..      BCC      0x24043b90 ; RCCEx_PLL3_Config + 256
        0x24043ba2:    2003        .       MOVS     r0,#3
        0x24043ba4:    b001        ..      ADD      sp,sp,#4
        0x24043ba6:    bdf0        ..      POP      {r4-r7,pc}
        0x24043ba8:    2000        .       MOVS     r0,#0
        0x24043baa:    b001        ..      ADD      sp,sp,#4
        0x24043bac:    bdf0        ..      POP      {r4-r7,pc}
        0x24043bae:    0000        ..      MOVS     r0,r0
    SVC_Handler
        0x24043bb0:    4770        pG      BX       lr
        0x24043bb2:    0000        ..      MOVS     r0,r0
        0x24043bb4:    0000        ..      MOVS     r0,r0
        0x24043bb6:    0000        ..      MOVS     r0,r0
    SysTick_Config
        0x24043bb8:    b5b0        ..      PUSH     {r4,r5,r7,lr}
        0x24043bba:    3801        .8      SUBS     r0,#1
        0x24043bbc:    2400        .$      MOVS     r4,#0
        0x24043bbe:    ebb46f10    ...o    CMP      r4,r0,LSR #24
        0x24043bc2:    d001        ..      BEQ      0x24043bc8 ; SysTick_Config + 16
        0x24043bc4:    2001        .       MOVS     r0,#1
        0x24043bc6:    bdb0        ..      POP      {r4,r5,r7,pc}
        0x24043bc8:    f24e0510    N...    MOV      r5,#0xe010
        0x24043bcc:    210f        .!      MOVS     r1,#0xf
        0x24043bce:    f2ce0500    ....    MOVT     r5,#0xe000
        0x24043bd2:    6068        h`      STR      r0,[r5,#4]
        0x24043bd4:    f04f30ff    O..0    MOV      r0,#0xffffffff
        0x24043bd8:    f000fdca    ....    BL       __NVIC_SetPriority ; 0x24044770
        0x24043bdc:    60ac        .`      STR      r4,[r5,#8]
        0x24043bde:    2007        .       MOVS     r0,#7
        0x24043be0:    6028        (`      STR      r0,[r5,#0]
        0x24043be2:    4620         F      MOV      r0,r4
        0x24043be4:    bdb0        ..      POP      {r4,r5,r7,pc}
        0x24043be6:    0000        ..      MOVS     r0,r0
    SysTick_Handler
        0x24043be8:    b580        ..      PUSH     {r7,lr}
        0x24043bea:    f7fdfdf5    ....    BL       HAL_IncTick ; 0x240417d8
        0x24043bee:    bd80        ..      POP      {r7,pc}
    SystemClock_Config
        0x24043bf0:    b570        p.      PUSH     {r4-r6,lr}
        0x24043bf2:    b09c        ..      SUB      sp,sp,#0x70
        0x24043bf4:    f6440418    D...    MOV      r4,#0x4818
        0x24043bf8:    f240452c    @.,E    MOV      r5,#0x42c
        0x24043bfc:    a809        ..      ADD      r0,sp,#0x24
        0x24043bfe:    214c        L!      MOVS     r1,#0x4c
        0x24043c00:    f6c50402    ....    MOVT     r4,#0x5802
        0x24043c04:    f6c50500    ....    MOVT     r5,#0x5800
        0x24043c08:    f7fdfc40    ..@.    BL       __aeabi_memclr4 ; 0x2404148c
        0x24043c0c:    2002        .       MOVS     r0,#2
        0x24043c0e:    2600        .&      MOVS     r6,#0
        0x24043c10:    e9cd6607    ...f    STRD     r6,r6,[sp,#0x1c]
        0x24043c14:    e9cd6605    ...f    STRD     r6,r6,[sp,#0x14]
        0x24043c18:    e9cd6603    ...f    STRD     r6,r6,[sp,#0xc]
        0x24043c1c:    e9cd6601    ...f    STRD     r6,r6,[sp,#4]
        0x24043c20:    f7fdfe76    ..v.    BL       HAL_PWREx_ConfigSupply ; 0x24041910
        0x24043c24:    9600        ..      STR      r6,[sp,#0]
        0x24043c26:    6828        (h      LDR      r0,[r5,#0]
        0x24043c28:    f0200001     ...    BIC      r0,r0,#1
        0x24043c2c:    6028        (`      STR      r0,[r5,#0]
        0x24043c2e:    6828        (h      LDR      r0,[r5,#0]
        0x24043c30:    f0000001    ....    AND      r0,r0,#1
        0x24043c34:    9000        ..      STR      r0,[sp,#0]
        0x24043c36:    6820         h      LDR      r0,[r4,#0]
        0x24043c38:    f4404040    @.@@    ORR      r0,r0,#0xc000
        0x24043c3c:    6020         `      STR      r0,[r4,#0]
        0x24043c3e:    6820         h      LDR      r0,[r4,#0]
        0x24043c40:    f4004040    ..@@    AND      r0,r0,#0xc000
        0x24043c44:    9000        ..      STR      r0,[sp,#0]
        0x24043c46:    9800        ..      LDR      r0,[sp,#0]
        0x24043c48:    6820         h      LDR      r0,[r4,#0]
        0x24043c4a:    0480        ..      LSLS     r0,r0,#18
        0x24043c4c:    d5fc        ..      BPL      0x24043c48 ; SystemClock_Config + 88
        0x24043c4e:    f64f40dc    O..@    MOV      r0,#0xfcdc
        0x24043c52:    f6cf70ff    ...p    MOVT     r0,#0xffff
        0x24043c56:    5821        !X      LDR      r1,[r4,r0]
        0x24043c58:    f0410102    A...    ORR      r1,r1,#2
        0x24043c5c:    5021        !P      STR      r1,[r4,r0]
        0x24043c5e:    5820         X      LDR      r0,[r4,r0]
        0x24043c60:    f0000002    ....    AND      r0,r0,#2
        0x24043c64:    9000        ..      STR      r0,[sp,#0]
        0x24043c66:    9800        ..      LDR      r0,[sp,#0]
        0x24043c68:    2000        .       MOVS     r0,#0
        0x24043c6a:    9000        ..      STR      r0,[sp,#0]
        0x24043c6c:    6820         h      LDR      r0,[r4,#0]
        0x24043c6e:    f4404040    @.@@    ORR      r0,r0,#0xc000
        0x24043c72:    6020         `      STR      r0,[r4,#0]
        0x24043c74:    6820         h      LDR      r0,[r4,#0]
        0x24043c76:    f4004040    ..@@    AND      r0,r0,#0xc000
        0x24043c7a:    9000        ..      STR      r0,[sp,#0]
        0x24043c7c:    6828        (h      LDR      r0,[r5,#0]
        0x24043c7e:    f0400001    @...    ORR      r0,r0,#1
        0x24043c82:    6028        (`      STR      r0,[r5,#0]
        0x24043c84:    6828        (h      LDR      r0,[r5,#0]
        0x24043c86:    f0000001    ....    AND      r0,r0,#1
        0x24043c8a:    9000        ..      STR      r0,[sp,#0]
        0x24043c8c:    9800        ..      LDR      r0,[sp,#0]
        0x24043c8e:    bf00        ..      NOP      
        0x24043c90:    6820         h      LDR      r0,[r4,#0]
        0x24043c92:    0480        ..      LSLS     r0,r0,#18
        0x24043c94:    d5fc        ..      BPL      0x24043c90 ; SystemClock_Config + 160
        0x24043c96:    2002        .       MOVS     r0,#2
        0x24043c98:    9009        ..      STR      r0,[sp,#0x24]
        0x24043c9a:    2101        .!      MOVS     r1,#1
        0x24043c9c:    910c        ..      STR      r1,[sp,#0x30]
        0x24043c9e:    9012        ..      STR      r0,[sp,#0x48]
        0x24043ca0:    2500        .%      MOVS     r5,#0
        0x24043ca2:    2104        .!      MOVS     r1,#4
        0x24043ca4:    9114        ..      STR      r1,[sp,#0x50]
        0x24043ca6:    213c        <!      MOVS     r1,#0x3c
        0x24043ca8:    2440        @$      MOVS     r4,#0x40
        0x24043caa:    e9cd1015    ....    STRD     r1,r0,[sp,#0x54]
        0x24043cae:    2105        .!      MOVS     r1,#5
        0x24043cb0:    940d        ..      STR      r4,[sp,#0x34]
        0x24043cb2:    e9cd1017    ....    STRD     r1,r0,[sp,#0x5c]
        0x24043cb6:    200c        .       MOVS     r0,#0xc
        0x24043cb8:    9513        ..      STR      r5,[sp,#0x4c]
        0x24043cba:    e9cd0519    ....    STRD     r0,r5,[sp,#0x64]
        0x24043cbe:    a809        ..      ADD      r0,sp,#0x24
        0x24043cc0:    951b        ..      STR      r5,[sp,#0x6c]
        0x24043cc2:    f7feff15    ....    BL       HAL_RCC_OscConfig ; 0x24042af0
        0x24043cc6:    b9a0        ..      CBNZ     r0,0x24043cf2 ; SystemClock_Config + 258
        0x24043cc8:    203f        ?       MOVS     r0,#0x3f
        0x24043cca:    9001        ..      STR      r0,[sp,#4]
        0x24043ccc:    2003        .       MOVS     r0,#3
        0x24043cce:    2104        .!      MOVS     r1,#4
        0x24043cd0:    e9cd0502    ....    STRD     r0,r5,[sp,#8]
        0x24043cd4:    2008        .       MOVS     r0,#8
        0x24043cd6:    9406        ..      STR      r4,[sp,#0x18]
        0x24043cd8:    e9cd0404    ....    STRD     r0,r4,[sp,#0x10]
        0x24043cdc:    f44f6080    O..`    MOV      r0,#0x400
        0x24043ce0:    e9cd0407    ....    STRD     r0,r4,[sp,#0x1c]
        0x24043ce4:    a801        ..      ADD      r0,sp,#4
        0x24043ce6:    f7fefc23    ..#.    BL       HAL_RCC_ClockConfig ; 0x24042530
        0x24043cea:    2800        .(      CMP      r0,#0
        0x24043cec:    bf04        ..      ITT      EQ
        0x24043cee:    b01c        ..      ADDEQ    sp,sp,#0x70
        0x24043cf0:    bd70        p.      POPEQ    {r4-r6,pc}
        0x24043cf2:    f7fdfc31    ..1.    BL       Error_Handler ; 0x24041558
        0x24043cf6:    0000        ..      MOVS     r0,r0
    SystemInit
        0x24043cf8:    f64e5088    N..P    MOV      r0,#0xed88
        0x24043cfc:    f2420c00    B...    MOVW     r12,#0x2000
        0x24043d00:    f2ce0000    ....    MOVT     r0,#0xe000
        0x24043d04:    f2c52c00    ...,    MOVT     r12,#0x5200
        0x24043d08:    6801        .h      LDR      r1,[r0,#0]
        0x24043d0a:    f4410170    A.p.    ORR      r1,r1,#0xf00000
        0x24043d0e:    6001        .`      STR      r1,[r0,#0]
        0x24043d10:    f8dc0000    ....    LDR      r0,[r12,#0]
        0x24043d14:    f000000f    ....    AND      r0,r0,#0xf
        0x24043d18:    2806        .(      CMP      r0,#6
        0x24043d1a:    d806        ..      BHI      0x24043d2a ; SystemInit + 50
        0x24043d1c:    f8dc0000    ....    LDR      r0,[r12,#0]
        0x24043d20:    2107        .!      MOVS     r1,#7
        0x24043d22:    f3610003    a...    BFI      r0,r1,#0,#4
        0x24043d26:    f8cc0000    ....    STR      r0,[r12,#0]
        0x24043d2a:    f2444000    D..@    MOVW     r0,#0x4400
        0x24043d2e:    f64e527f    N..R    MOV      r2,#0xed7f
        0x24043d32:    f6c50002    ....    MOVT     r0,#0x5802
        0x24043d36:    f6ce22f6    ..."    MOVT     r2,#0xeaf6
        0x24043d3a:    6801        .h      LDR      r1,[r0,#0]
        0x24043d3c:    f0410101    A...    ORR      r1,r1,#1
        0x24043d40:    6001        .`      STR      r1,[r0,#0]
        0x24043d42:    2100        .!      MOVS     r1,#0
        0x24043d44:    6101        .a      STR      r1,[r0,#0x10]
        0x24043d46:    6803        .h      LDR      r3,[r0,#0]
        0x24043d48:    401a        .@      ANDS     r2,r2,r3
        0x24043d4a:    6002        .`      STR      r2,[r0,#0]
        0x24043d4c:    f8dc2000    ...     LDR      r2,[r12,#0]
        0x24043d50:    0712        ..      LSLS     r2,r2,#28
        0x24043d52:    d506        ..      BPL      0x24043d62 ; SystemInit + 106
        0x24043d54:    f8dc2000    ...     LDR      r2,[r12,#0]
        0x24043d58:    2307        .#      MOVS     r3,#7
        0x24043d5a:    f3630203    c...    BFI      r2,r3,#0,#4
        0x24043d5e:    f8cc2000    ...     STR      r2,[r12,#0]
        0x24043d62:    f2402200    @.."    MOVW     r2,#0x200
        0x24043d66:    6181        .a      STR      r1,[r0,#0x18]
        0x24043d68:    61c1        .a      STR      r1,[r0,#0x1c]
        0x24043d6a:    f2c02202    ..."    MOVT     r2,#0x202
        0x24043d6e:    6201        .b      STR      r1,[r0,#0x20]
        0x24043d70:    6282        .b      STR      r2,[r0,#0x28]
        0x24043d72:    2200        ."      MOVS     r2,#0
        0x24043d74:    f2c012ff    ....    MOVT     r2,#0x1ff
        0x24043d78:    62c2        .b      STR      r2,[r0,#0x2c]
        0x24043d7a:    f2402280    @.."    MOVW     r2,#0x280
        0x24043d7e:    f2c01201    ....    MOVT     r2,#0x101
        0x24043d82:    6302        .c      STR      r2,[r0,#0x30]
        0x24043d84:    6341        Ac      STR      r1,[r0,#0x34]
        0x24043d86:    6382        .c      STR      r2,[r0,#0x38]
        0x24043d88:    63c1        .c      STR      r1,[r0,#0x3c]
        0x24043d8a:    6402        .d      STR      r2,[r0,#0x40]
        0x24043d8c:    6441        Ad      STR      r1,[r0,#0x44]
        0x24043d8e:    6802        .h      LDR      r2,[r0,#0]
        0x24043d90:    f4222280    ".."    BIC      r2,r2,#0x40000
        0x24043d94:    6002        .`      STR      r2,[r0,#0]
        0x24043d96:    6601        .f      STR      r1,[r0,#0x60]
        0x24043d98:    f2410000    A...    MOVW     r0,#0x1000
        0x24043d9c:    f6c54000    ...@    MOVT     r0,#0x5c00
        0x24043da0:    6800        .h      LDR      r0,[r0,#0]
        0x24043da2:    ebb17f50    ..P.    CMP      r1,r0,LSR #29
        0x24043da6:    d105        ..      BNE      0x24043db4 ; SystemInit + 188
        0x24043da8:    f2481008    H...    MOV      r0,#0x8108
        0x24043dac:    2101        .!      MOVS     r1,#1
        0x24043dae:    f2c51000    ....    MOVT     r0,#0x5100
        0x24043db2:    6001        .`      STR      r1,[r0,#0]
        0x24043db4:    f2440000    D...    MOVW     r0,#0x4000
        0x24043db8:    f24301d2    C...    MOV      r1,#0x30d2
        0x24043dbc:    f2c52000    ...     MOVT     r0,#0x5200
        0x24043dc0:    6001        .`      STR      r1,[r0,#0]
        0x24043dc2:    4770        pG      BX       lr
        0x24043dc4:    0000        ..      MOVS     r0,r0
        0x24043dc6:    0000        ..      MOVS     r0,r0
    TIM6_DAC_IRQHandler
        0x24043dc8:    b580        ..      PUSH     {r7,lr}
        0x24043dca:    f64410b0    D...    MOV      r0,#0x49b0
        0x24043dce:    f2c24004    ...@    MOVT     r0,#0x2404
        0x24043dd2:    f7fffacd    ....    BL       HAL_TIM_IRQHandler ; 0x24043370
        0x24043dd6:    bd80        ..      POP      {r7,pc}
    TIM_Base_SetConfig
        0x24043dd8:    b510        ..      PUSH     {r4,lr}
        0x24043dda:    f64032ff    @..2    MOV      r2,#0xbff
        0x24043dde:    f2c40200    ....    MOVT     r2,#0x4000
        0x24043de2:    4290        .B      CMP      r0,r2
        0x24043de4:    6802        .h      LDR      r2,[r0,#0]
        0x24043de6:    dc0f        ..      BGT      0x24043e08 ; TIM_Base_SetConfig + 48
        0x24043de8:    f1b04f80    ...O    CMP      r0,#0x40000000
        0x24043dec:    d01d        ..      BEQ      0x24043e2a ; TIM_Base_SetConfig + 82
        0x24043dee:    f2404300    @..C    MOVW     r3,#0x400
        0x24043df2:    f2c40300    ....    MOVT     r3,#0x4000
        0x24043df6:    4298        .B      CMP      r0,r3
        0x24043df8:    d017        ..      BEQ      0x24043e2a ; TIM_Base_SetConfig + 82
        0x24043dfa:    f6400300    @...    MOVW     r3,#0x800
        0x24043dfe:    f2c40300    ....    MOVT     r3,#0x4000
        0x24043e02:    4298        .B      CMP      r0,r3
        0x24043e04:    d011        ..      BEQ      0x24043e2a ; TIM_Base_SetConfig + 82
        0x24043e06:    e014        ..      B        0x24043e32 ; TIM_Base_SetConfig + 90
        0x24043e08:    f6404300    @..C    MOVW     r3,#0xc00
        0x24043e0c:    f2c40300    ....    MOVT     r3,#0x4000
        0x24043e10:    4298        .B      CMP      r0,r3
        0x24043e12:    d00a        ..      BEQ      0x24043e2a ; TIM_Base_SetConfig + 82
        0x24043e14:    f2404300    @..C    MOVW     r3,#0x400
        0x24043e18:    f2c40301    ....    MOVT     r3,#0x4001
        0x24043e1c:    4298        .B      CMP      r0,r3
        0x24043e1e:    d004        ..      BEQ      0x24043e2a ; TIM_Base_SetConfig + 82
        0x24043e20:    2300        .#      MOVS     r3,#0
        0x24043e22:    f2c40301    ....    MOVT     r3,#0x4001
        0x24043e26:    4298        .B      CMP      r0,r3
        0x24043e28:    d103        ..      BNE      0x24043e32 ; TIM_Base_SetConfig + 90
        0x24043e2a:    f0220270    ".p.    BIC      r2,r2,#0x70
        0x24043e2e:    684b        Kh      LDR      r3,[r1,#4]
        0x24043e30:    431a        .C      ORRS     r2,r2,r3
        0x24043e32:    f64f73ff    O..s    MOV      r3,#0xffff
        0x24043e36:    f6437cff    C..|    MOV      r12,#0x3fff
        0x24043e3a:    f2c40300    ....    MOVT     r3,#0x4000
        0x24043e3e:    f2c40c01    ....    MOVT     r12,#0x4001
        0x24043e42:    4298        .B      CMP      r0,r3
        0x24043e44:    dd10        ..      BLE      0x24043e68 ; TIM_Base_SetConfig + 144
        0x24043e46:    4560        `E      CMP      r0,r12
        0x24043e48:    dd1a        ..      BLE      0x24043e80 ; TIM_Base_SetConfig + 168
        0x24043e4a:    f2440300    D...    MOVW     r3,#0x4000
        0x24043e4e:    f2c40301    ....    MOVT     r3,#0x4001
        0x24043e52:    4298        .B      CMP      r0,r3
        0x24043e54:    d02c        ,.      BEQ      0x24043eb0 ; TIM_Base_SetConfig + 216
        0x24043e56:    f6440300    D...    MOVW     r3,#0x4800
        0x24043e5a:    f2c40301    ....    MOVT     r3,#0x4001
        0x24043e5e:    4298        .B      CMP      r0,r3
        0x24043e60:    d026        &.      BEQ      0x24043eb0 ; TIM_Base_SetConfig + 216
        0x24043e62:    f2444300    D..C    MOVW     r3,#0x4400
        0x24043e66:    e012        ..      B        0x24043e8e ; TIM_Base_SetConfig + 182
        0x24043e68:    f24073ff    @..s    MOV      r3,#0x7ff
        0x24043e6c:    f2c40300    ....    MOVT     r3,#0x4000
        0x24043e70:    4298        .B      CMP      r0,r3
        0x24043e72:    dc11        ..      BGT      0x24043e98 ; TIM_Base_SetConfig + 192
        0x24043e74:    f1b04f80    ...O    CMP      r0,#0x40000000
        0x24043e78:    d01a        ..      BEQ      0x24043eb0 ; TIM_Base_SetConfig + 216
        0x24043e7a:    f2404300    @..C    MOVW     r3,#0x400
        0x24043e7e:    e013        ..      B        0x24043ea8 ; TIM_Base_SetConfig + 208
        0x24043e80:    2300        .#      MOVS     r3,#0
        0x24043e82:    f2c40301    ....    MOVT     r3,#0x4001
        0x24043e86:    4298        .B      CMP      r0,r3
        0x24043e88:    d012        ..      BEQ      0x24043eb0 ; TIM_Base_SetConfig + 216
        0x24043e8a:    f2404300    @..C    MOVW     r3,#0x400
        0x24043e8e:    f2c40301    ....    MOVT     r3,#0x4001
        0x24043e92:    4298        .B      CMP      r0,r3
        0x24043e94:    d00c        ..      BEQ      0x24043eb0 ; TIM_Base_SetConfig + 216
        0x24043e96:    e00f        ..      B        0x24043eb8 ; TIM_Base_SetConfig + 224
        0x24043e98:    f6400300    @...    MOVW     r3,#0x800
        0x24043e9c:    f2c40300    ....    MOVT     r3,#0x4000
        0x24043ea0:    4298        .B      CMP      r0,r3
        0x24043ea2:    d005        ..      BEQ      0x24043eb0 ; TIM_Base_SetConfig + 216
        0x24043ea4:    f6404300    @..C    MOVW     r3,#0xc00
        0x24043ea8:    f2c40300    ....    MOVT     r3,#0x4000
        0x24043eac:    4298        .B      CMP      r0,r3
        0x24043eae:    d103        ..      BNE      0x24043eb8 ; TIM_Base_SetConfig + 224
        0x24043eb0:    f4227240    ".@r    BIC      r2,r2,#0x300
        0x24043eb4:    68cb        .h      LDR      r3,[r1,#0xc]
        0x24043eb6:    431a        .C      ORRS     r2,r2,r3
        0x24043eb8:    f0220280    "...    BIC      r2,r2,#0x80
        0x24043ebc:    694c        Li      LDR      r4,[r1,#0x14]
        0x24043ebe:    4560        `E      CMP      r0,r12
        0x24043ec0:    f8d1e000    ....    LDR      lr,[r1,#0]
        0x24043ec4:    688b        .h      LDR      r3,[r1,#8]
        0x24043ec6:    ea420204    B...    ORR      r2,r2,r4
        0x24043eca:    6002        .`      STR      r2,[r0,#0]
        0x24043ecc:    62c3        .b      STR      r3,[r0,#0x2c]
        0x24043ece:    f8c0e028    ..(.    STR      lr,[r0,#0x28]
        0x24043ed2:    dd0e        ..      BLE      0x24043ef2 ; TIM_Base_SetConfig + 282
        0x24043ed4:    f2440200    D...    MOVW     r2,#0x4000
        0x24043ed8:    f2c40201    ....    MOVT     r2,#0x4001
        0x24043edc:    4290        .B      CMP      r0,r2
        0x24043ede:    d013        ..      BEQ      0x24043f08 ; TIM_Base_SetConfig + 304
        0x24043ee0:    f6440200    D...    MOVW     r2,#0x4800
        0x24043ee4:    f2c40201    ....    MOVT     r2,#0x4001
        0x24043ee8:    4290        .B      CMP      r0,r2
        0x24043eea:    d00d        ..      BEQ      0x24043f08 ; TIM_Base_SetConfig + 304
        0x24043eec:    f2444200    D..B    MOVW     r2,#0x4400
        0x24043ef0:    e006        ..      B        0x24043f00 ; TIM_Base_SetConfig + 296
        0x24043ef2:    2200        ."      MOVS     r2,#0
        0x24043ef4:    f2c40201    ....    MOVT     r2,#0x4001
        0x24043ef8:    4290        .B      CMP      r0,r2
        0x24043efa:    d005        ..      BEQ      0x24043f08 ; TIM_Base_SetConfig + 304
        0x24043efc:    f2404200    @..B    MOVW     r2,#0x400
        0x24043f00:    f2c40201    ....    MOVT     r2,#0x4001
        0x24043f04:    4290        .B      CMP      r0,r2
        0x24043f06:    d101        ..      BNE      0x24043f0c ; TIM_Base_SetConfig + 308
        0x24043f08:    6909        .i      LDR      r1,[r1,#0x10]
        0x24043f0a:    6301        .c      STR      r1,[r0,#0x30]
        0x24043f0c:    2101        .!      MOVS     r1,#1
        0x24043f0e:    6141        Aa      STR      r1,[r0,#0x14]
        0x24043f10:    bd10        ..      POP      {r4,pc}
        0x24043f12:    0000        ..      MOVS     r0,r0
        0x24043f14:    0000        ..      MOVS     r0,r0
        0x24043f16:    0000        ..      MOVS     r0,r0
    UARTEx_SetNbDataToProcess
        0x24043f18:    b510        ..      PUSH     {r4,lr}
        0x24043f1a:    6e41        An      LDR      r1,[r0,#0x64]
        0x24043f1c:    b301        ..      CBZ      r1,0x24043f60 ; UARTEx_SetNbDataToProcess + 72
        0x24043f1e:    6801        .h      LDR      r1,[r0,#0]
        0x24043f20:    f6440cc6    D...    MOV      r12,#0x48c6
        0x24043f24:    f2c24c04    ...L    MOVT     r12,#0x2404
        0x24043f28:    f6440ece    D...    MOV      lr,#0x48ce
        0x24043f2c:    688a        .h      LDR      r2,[r1,#8]
        0x24043f2e:    f2c24e04    ...N    MOVT     lr,#0x2404
        0x24043f32:    6889        .h      LDR      r1,[r1,#8]
        0x24043f34:    f3c26242    ..Bb    UBFX     r2,r2,#25,#3
        0x24043f38:    0f4c        L.      LSRS     r4,r1,#29
        0x24043f3a:    f81c3002    ...0    LDRB     r3,[r12,r2]
        0x24043f3e:    f81e1002    ....    LDRB     r1,[lr,r2]
        0x24043f42:    011a        ..      LSLS     r2,r3,#4
        0x24043f44:    f81e3004    ...0    LDRB     r3,[lr,r4]
        0x24043f48:    fbb2f1f1    ....    UDIV     r1,r2,r1
        0x24043f4c:    f81c2004    ...     LDRB     r2,[r12,r4]
        0x24043f50:    f8a01068    ..h.    STRH     r1,[r0,#0x68]
        0x24043f54:    0112        ..      LSLS     r2,r2,#4
        0x24043f56:    fbb2f2f3    ....    UDIV     r2,r2,r3
        0x24043f5a:    f8a0206a    ..j     STRH     r2,[r0,#0x6a]
        0x24043f5e:    bd10        ..      POP      {r4,pc}
        0x24043f60:    2101        .!      MOVS     r1,#1
        0x24043f62:    f8a0106a    ..j.    STRH     r1,[r0,#0x6a]
        0x24043f66:    f8a01068    ..h.    STRH     r1,[r0,#0x68]
        0x24043f6a:    bd10        ..      POP      {r4,pc}
        0x24043f6c:    0000        ..      MOVS     r0,r0
        0x24043f6e:    0000        ..      MOVS     r0,r0
    UART_AdvFeatureConfig
        0x24043f70:    6a81        .j      LDR      r1,[r0,#0x28]
        0x24043f72:    07ca        ..      LSLS     r2,r1,#31
        0x24043f74:    d10c        ..      BNE      0x24043f90 ; UART_AdvFeatureConfig + 32
        0x24043f76:    078a        ..      LSLS     r2,r1,#30
        0x24043f78:    d415        ..      BMI      0x24043fa6 ; UART_AdvFeatureConfig + 54
        0x24043f7a:    074a        J.      LSLS     r2,r1,#29
        0x24043f7c:    d41e        ..      BMI      0x24043fbc ; UART_AdvFeatureConfig + 76
        0x24043f7e:    070a        ..      LSLS     r2,r1,#28
        0x24043f80:    d427        '.      BMI      0x24043fd2 ; UART_AdvFeatureConfig + 98
        0x24043f82:    06ca        ..      LSLS     r2,r1,#27
        0x24043f84:    d430        0.      BMI      0x24043fe8 ; UART_AdvFeatureConfig + 120
        0x24043f86:    068a        ..      LSLS     r2,r1,#26
        0x24043f88:    d439        9.      BMI      0x24043ffe ; UART_AdvFeatureConfig + 142
        0x24043f8a:    064a        J.      LSLS     r2,r1,#25
        0x24043f8c:    d555        U.      BPL      0x2404403a ; UART_AdvFeatureConfig + 202
        0x24043f8e:    e041        A.      B        0x24044014 ; UART_AdvFeatureConfig + 164
        0x24043f90:    6802        .h      LDR      r2,[r0,#0]
        0x24043f92:    f8d0c02c    ..,.    LDR      r12,[r0,#0x2c]
        0x24043f96:    6853        Sh      LDR      r3,[r2,#4]
        0x24043f98:    f4233300    #..3    BIC      r3,r3,#0x20000
        0x24043f9c:    ea43030c    C...    ORR      r3,r3,r12
        0x24043fa0:    6053        S`      STR      r3,[r2,#4]
        0x24043fa2:    078a        ..      LSLS     r2,r1,#30
        0x24043fa4:    d5e9        ..      BPL      0x24043f7a ; UART_AdvFeatureConfig + 10
        0x24043fa6:    6802        .h      LDR      r2,[r0,#0]
        0x24043fa8:    f8d0c030    ..0.    LDR      r12,[r0,#0x30]
        0x24043fac:    6853        Sh      LDR      r3,[r2,#4]
        0x24043fae:    f4233380    #..3    BIC      r3,r3,#0x10000
        0x24043fb2:    ea43030c    C...    ORR      r3,r3,r12
        0x24043fb6:    6053        S`      STR      r3,[r2,#4]
        0x24043fb8:    074a        J.      LSLS     r2,r1,#29
        0x24043fba:    d5e0        ..      BPL      0x24043f7e ; UART_AdvFeatureConfig + 14
        0x24043fbc:    6802        .h      LDR      r2,[r0,#0]
        0x24043fbe:    f8d0c034    ..4.    LDR      r12,[r0,#0x34]
        0x24043fc2:    6853        Sh      LDR      r3,[r2,#4]
        0x24043fc4:    f4232380    #..#    BIC      r3,r3,#0x40000
        0x24043fc8:    ea43030c    C...    ORR      r3,r3,r12
        0x24043fcc:    6053        S`      STR      r3,[r2,#4]
        0x24043fce:    070a        ..      LSLS     r2,r1,#28
        0x24043fd0:    d5d7        ..      BPL      0x24043f82 ; UART_AdvFeatureConfig + 18
        0x24043fd2:    6802        .h      LDR      r2,[r0,#0]
        0x24043fd4:    f8d0c038    ..8.    LDR      r12,[r0,#0x38]
        0x24043fd8:    6853        Sh      LDR      r3,[r2,#4]
        0x24043fda:    f4234300    #..C    BIC      r3,r3,#0x8000
        0x24043fde:    ea43030c    C...    ORR      r3,r3,r12
        0x24043fe2:    6053        S`      STR      r3,[r2,#4]
        0x24043fe4:    06ca        ..      LSLS     r2,r1,#27
        0x24043fe6:    d5ce        ..      BPL      0x24043f86 ; UART_AdvFeatureConfig + 22
        0x24043fe8:    6802        .h      LDR      r2,[r0,#0]
        0x24043fea:    f8d0c03c    ..<.    LDR      r12,[r0,#0x3c]
        0x24043fee:    6893        .h      LDR      r3,[r2,#8]
        0x24043ff0:    f4235380    #..S    BIC      r3,r3,#0x1000
        0x24043ff4:    ea43030c    C...    ORR      r3,r3,r12
        0x24043ff8:    6093        .`      STR      r3,[r2,#8]
        0x24043ffa:    068a        ..      LSLS     r2,r1,#26
        0x24043ffc:    d5c5        ..      BPL      0x24043f8a ; UART_AdvFeatureConfig + 26
        0x24043ffe:    6802        .h      LDR      r2,[r0,#0]
        0x24044000:    f8d0c040    ..@.    LDR      r12,[r0,#0x40]
        0x24044004:    6893        .h      LDR      r3,[r2,#8]
        0x24044006:    f4235300    #..S    BIC      r3,r3,#0x2000
        0x2404400a:    ea43030c    C...    ORR      r3,r3,r12
        0x2404400e:    6093        .`      STR      r3,[r2,#8]
        0x24044010:    064a        J.      LSLS     r2,r1,#25
        0x24044012:    d512        ..      BPL      0x2404403a ; UART_AdvFeatureConfig + 202
        0x24044014:    6802        .h      LDR      r2,[r0,#0]
        0x24044016:    f8d0c044    ..D.    LDR      r12,[r0,#0x44]
        0x2404401a:    f5bc1f80    ....    CMP      r12,#0x100000
        0x2404401e:    6853        Sh      LDR      r3,[r2,#4]
        0x24044020:    f4231380    #...    BIC      r3,r3,#0x100000
        0x24044024:    ea43030c    C...    ORR      r3,r3,r12
        0x24044028:    6053        S`      STR      r3,[r2,#4]
        0x2404402a:    d106        ..      BNE      0x2404403a ; UART_AdvFeatureConfig + 202
        0x2404402c:    6853        Sh      LDR      r3,[r2,#4]
        0x2404402e:    f4230cc0    #...    BIC      r12,r3,#0x600000
        0x24044032:    6c83        .l      LDR      r3,[r0,#0x48]
        0x24044034:    ea43030c    C...    ORR      r3,r3,r12
        0x24044038:    6053        S`      STR      r3,[r2,#4]
        0x2404403a:    0609        ..      LSLS     r1,r1,#24
        0x2404403c:    bf58        X.      IT       PL
        0x2404403e:    4770        pG      BXPL     lr
        0x24044040:    6801        .h      LDR      r1,[r0,#0]
        0x24044042:    6cc0        .l      LDR      r0,[r0,#0x4c]
        0x24044044:    684a        Jh      LDR      r2,[r1,#4]
        0x24044046:    f4222200    ".."    BIC      r2,r2,#0x80000
        0x2404404a:    4310        .C      ORRS     r0,r0,r2
        0x2404404c:    6048        H`      STR      r0,[r1,#4]
        0x2404404e:    4770        pG      BX       lr
    UART_CheckIdleState
        0x24044050:    b5b0        ..      PUSH     {r4,r5,r7,lr}
        0x24044052:    b082        ..      SUB      sp,sp,#8
        0x24044054:    4604        .F      MOV      r4,r0
        0x24044056:    2000        .       MOVS     r0,#0
        0x24044058:    f8c4008c    ....    STR      r0,[r4,#0x8c]
        0x2404405c:    f7fdfbb4    ....    BL       HAL_GetTick ; 0x240417c8
        0x24044060:    6821        !h      LDR      r1,[r4,#0]
        0x24044062:    4605        .F      MOV      r5,r0
        0x24044064:    6809        .h      LDR      r1,[r1,#0]
        0x24044066:    0709        ..      LSLS     r1,r1,#28
        0x24044068:    d50a        ..      BPL      0x24044080 ; UART_CheckIdleState + 48
        0x2404406a:    f44f1100    O...    MOV      r1,#0x200000
        0x2404406e:    2200        ."      MOVS     r2,#0
        0x24044070:    f06f407e    o.~@    MVN      r0,#0xfe000000
        0x24044074:    9000        ..      STR      r0,[sp,#0]
        0x24044076:    4620         F      MOV      r0,r4
        0x24044078:    462b        +F      MOV      r3,r5
        0x2404407a:    f000fae5    ....    BL       UART_WaitOnFlagUntilTimeout ; 0x24044648
        0x2404407e:    b970        p.      CBNZ     r0,0x2404409e ; UART_CheckIdleState + 78
        0x24044080:    6820         h      LDR      r0,[r4,#0]
        0x24044082:    6800        .h      LDR      r0,[r0,#0]
        0x24044084:    0740        @.      LSLS     r0,r0,#29
        0x24044086:    d50d        ..      BPL      0x240440a4 ; UART_CheckIdleState + 84
        0x24044088:    f44f0180    O...    MOV      r1,#0x400000
        0x2404408c:    2200        ."      MOVS     r2,#0
        0x2404408e:    f06f407e    o.~@    MVN      r0,#0xfe000000
        0x24044092:    9000        ..      STR      r0,[sp,#0]
        0x24044094:    4620         F      MOV      r0,r4
        0x24044096:    462b        +F      MOV      r3,r5
        0x24044098:    f000fad6    ....    BL       UART_WaitOnFlagUntilTimeout ; 0x24044648
        0x2404409c:    b110        ..      CBZ      r0,0x240440a4 ; UART_CheckIdleState + 84
        0x2404409e:    2003        .       MOVS     r0,#3
        0x240440a0:    b002        ..      ADD      sp,sp,#8
        0x240440a2:    bdb0        ..      POP      {r4,r5,r7,pc}
        0x240440a4:    2020                MOVS     r0,#0x20
        0x240440a6:    f8c40084    ....    STR      r0,[r4,#0x84]
        0x240440aa:    f8c40088    ....    STR      r0,[r4,#0x88]
        0x240440ae:    2000        .       MOVS     r0,#0
        0x240440b0:    66e0        .f      STR      r0,[r4,#0x6c]
        0x240440b2:    f8840080    ....    STRB     r0,[r4,#0x80]
        0x240440b6:    b002        ..      ADD      sp,sp,#8
        0x240440b8:    bdb0        ..      POP      {r4,r5,r7,pc}
        0x240440ba:    0000        ..      MOVS     r0,r0
        0x240440bc:    0000        ..      MOVS     r0,r0
        0x240440be:    0000        ..      MOVS     r0,r0
    UART_SetConfig
        0x240440c0:    b5f0        ..      PUSH     {r4-r7,lr}
        0x240440c2:    b083        ..      SUB      sp,sp,#0xc
        0x240440c4:    4604        .F      MOV      r4,r0
        0x240440c6:    6803        .h      LDR      r3,[r0,#0]
        0x240440c8:    6880        .h      LDR      r0,[r0,#8]
        0x240440ca:    f64616f3    F...    MOV      r6,#0x69f3
        0x240440ce:    e9d41203    ....    LDRD     r1,r2,[r4,#0xc]
        0x240440d2:    4310        .C      ORRS     r0,r0,r2
        0x240440d4:    6962        bi      LDR      r2,[r4,#0x14]
        0x240440d6:    4310        .C      ORRS     r0,r0,r2
        0x240440d8:    69e2        .i      LDR      r2,[r4,#0x1c]
        0x240440da:    681f        .h      LDR      r7,[r3,#0]
        0x240440dc:    f6cc76ff    ...v    MOVT     r6,#0xcfff
        0x240440e0:    4310        .C      ORRS     r0,r0,r2
        0x240440e2:    ea070206    ....    AND      r2,r7,r6
        0x240440e6:    4310        .C      ORRS     r0,r0,r2
        0x240440e8:    6018        .`      STR      r0,[r3,#0]
        0x240440ea:    6858        Xh      LDR      r0,[r3,#4]
        0x240440ec:    f24f47ff    O..G    MOV      r7,#0xf4ff
        0x240440f0:    f4205240     .@R    BIC      r2,r0,#0x3000
        0x240440f4:    f6404000    @..@    MOVW     r0,#0xc00
        0x240440f8:    4311        .C      ORRS     r1,r1,r2
        0x240440fa:    6059        Y`      STR      r1,[r3,#4]
        0x240440fc:    f6c50000    ....    MOVT     r0,#0x5800
        0x24044100:    69a1        .i      LDR      r1,[r4,#0x18]
        0x24044102:    4283        .B      CMP      r3,r0
        0x24044104:    f2c117ff    ....    MOVT     r7,#0x11ff
        0x24044108:    bf1c        ..      ITT      NE
        0x2404410a:    6a22        "j      LDRNE    r2,[r4,#0x20]
        0x2404410c:    4311        .C      ORRNE    r1,r1,r2
        0x2404410e:    689a        .h      LDR      r2,[r3,#8]
        0x24044110:    f24776ff    G..v    MOV      r6,#0x77ff
        0x24044114:    403a        :@      ANDS     r2,r2,r7
        0x24044116:    f2c40600    ....    MOVT     r6,#0x4000
        0x2404411a:    4311        .C      ORRS     r1,r1,r2
        0x2404411c:    6099        .`      STR      r1,[r3,#8]
        0x2404411e:    6ada        .j      LDR      r2,[r3,#0x2c]
        0x24044120:    f2444154    D.TA    MOV      r1,#0x4454
        0x24044124:    f022020f    "...    BIC      r2,r2,#0xf
        0x24044128:    6a67        gj      LDR      r7,[r4,#0x24]
        0x2404412a:    f6c50102    ....    MOVT     r1,#0x5802
        0x2404412e:    433a        :C      ORRS     r2,r2,r7
        0x24044130:    42b3        .B      CMP      r3,r6
        0x24044132:    62da        .b      STR      r2,[r3,#0x2c]
        0x24044134:    f04f0280    O...    MOV      r2,#0x80
        0x24044138:    dd25        %.      BLE      0x24044186 ; UART_SetConfig + 198
        0x2404413a:    f64077ff    @..w    MOV      r7,#0xfff
        0x2404413e:    f2c40701    ....    MOVT     r7,#0x4001
        0x24044142:    42bb        .B      CMP      r3,r7
        0x24044144:    dd3f        ?.      BLE      0x240441c6 ; UART_SetConfig + 262
        0x24044146:    4283        .B      CMP      r3,r0
        0x24044148:    f0008071    ..q.    BEQ.W    0x2404422e ; UART_SetConfig + 366
        0x2404414c:    f2414700    A..G    MOVW     r7,#0x1400
        0x24044150:    f2c40701    ....    MOVT     r7,#0x4001
        0x24044154:    42bb        .B      CMP      r3,r7
        0x24044156:    f0008075    ..u.    BEQ.W    0x24044244 ; UART_SetConfig + 388
        0x2404415a:    f2410700    A...    MOVW     r7,#0x1000
        0x2404415e:    f2c40701    ....    MOVT     r7,#0x4001
        0x24044162:    42bb        .B      CMP      r3,r7
        0x24044164:    f04080a5    @...    BNE.W    0x240442b2 ; UART_SetConfig + 498
        0x24044168:    680a        .h      LDR      r2,[r1,#0]
        0x2404416a:    f3c203c2    ....    UBFX     r3,r2,#3,#3
        0x2404416e:    2b05        .+      CMP      r3,#5
        0x24044170:    f2008096    ....    BHI.W    0x240442a0 ; UART_SetConfig + 480
        0x24044174:    2201        ."      MOVS     r2,#1
        0x24044176:    e8dff013    ....    TBH      [pc,r3,LSL #1]
    $d.3
        0x2404417a:    009c        ..      DCW    156
        0x2404417c:    00950091    ....    DCD    9765009
        0x24044180:    00990097    ....    DCD    10027159
        0x24044184:    009b        ..      DCW    155
    $t.4
        0x24044186:    f64437ff    D..7    MOV      r7,#0x4bff
        0x2404418a:    f2c40700    ....    MOVT     r7,#0x4000
        0x2404418e:    42bb        .B      CMP      r3,r7
        0x24044190:    dc33        3.      BGT      0x240441fa ; UART_SetConfig + 314
        0x24044192:    f2444700    D..G    MOVW     r7,#0x4400
        0x24044196:    f2c40700    ....    MOVT     r7,#0x4000
        0x2404419a:    42bb        .B      CMP      r3,r7
        0x2404419c:    f000805d    ..].    BEQ.W    0x2404425a ; UART_SetConfig + 410
        0x240441a0:    f6440700    D...    MOVW     r7,#0x4800
        0x240441a4:    f2c40700    ....    MOVT     r7,#0x4000
        0x240441a8:    42bb        .B      CMP      r3,r7
        0x240441aa:    f0408082    @...    BNE.W    0x240442b2 ; UART_SetConfig + 498
        0x240441ae:    680a        .h      LDR      r2,[r1,#0]
        0x240441b0:    f0020307    ....    AND      r3,r2,#7
        0x240441b4:    2b05        .+      CMP      r3,#5
        0x240441b6:    f2008073    ..s.    BHI.W    0x240442a0 ; UART_SetConfig + 480
        0x240441ba:    2200        ."      MOVS     r2,#0
        0x240441bc:    e8dff003    ....    TBB      [pc,r3]
    $d.5
        0x240441c0:    74726e79    ynrt    DCD    1953656441
        0x240441c4:    7876        vx      DCW    30838
    $t.6
        0x240441c6:    f6470700    G...    MOVW     r7,#0x7800
        0x240441ca:    f2c40700    ....    MOVT     r7,#0x4000
        0x240441ce:    42bb        .B      CMP      r3,r7
        0x240441d0:    f000804e    ..N.    BEQ.W    0x24044270 ; UART_SetConfig + 432
        0x240441d4:    f6474700    G..G    MOVW     r7,#0x7c00
        0x240441d8:    f2c40700    ....    MOVT     r7,#0x4000
        0x240441dc:    42bb        .B      CMP      r3,r7
        0x240441de:    f0408068    @.h.    BNE.W    0x240442b2 ; UART_SetConfig + 498
        0x240441e2:    680a        .h      LDR      r2,[r1,#0]
        0x240441e4:    f0020307    ....    AND      r3,r2,#7
        0x240441e8:    2b05        .+      CMP      r3,#5
        0x240441ea:    f2008059    ..Y.    BHI.W    0x240442a0 ; UART_SetConfig + 480
        0x240441ee:    2200        ."      MOVS     r2,#0
        0x240441f0:    e8dff003    ....    TBB      [pc,r3]
    $d.7
        0x240441f4:    5a58545f    _TXZ    DCD    1515738207
        0x240441f8:    5e5c        \^      DCW    24156
    $t.8
        0x240441fa:    f6444700    D..G    MOVW     r7,#0x4c00
        0x240441fe:    f2c40700    ....    MOVT     r7,#0x4000
        0x24044202:    42bb        .B      CMP      r3,r7
        0x24044204:    f000803f    ..?.    BEQ.W    0x24044286 ; UART_SetConfig + 454
        0x24044208:    f2450700    E...    MOVW     r7,#0x5000
        0x2404420c:    f2c40700    ....    MOVT     r7,#0x4000
        0x24044210:    42bb        .B      CMP      r3,r7
        0x24044212:    f040804e    @.N.    BNE.W    0x240442b2 ; UART_SetConfig + 498
        0x24044216:    680a        .h      LDR      r2,[r1,#0]
        0x24044218:    f0020307    ....    AND      r3,r2,#7
        0x2404421c:    2b05        .+      CMP      r3,#5
        0x2404421e:    f200803f    ..?.    BHI.W    0x240442a0 ; UART_SetConfig + 480
        0x24044222:    2200        ."      MOVS     r2,#0
        0x24044224:    e8dff003    ....    TBB      [pc,r3]
    $d.9
        0x24044228:    403e3a45    E:>@    DCD    1077819973
        0x2404422c:    4442        BD      DCW    17474
    $t.10
        0x2404422e:    684a        Jh      LDR      r2,[r1,#4]
        0x24044230:    f0020307    ....    AND      r3,r2,#7
        0x24044234:    2b05        .+      CMP      r3,#5
        0x24044236:    d833        3.      BHI      0x240442a0 ; UART_SetConfig + 480
        0x24044238:    2202        ."      MOVS     r2,#2
        0x2404423a:    e8dff003    ....    TBB      [pc,r3]
    $d.11
        0x2404423e:    2f3a        :/      DCW    12090
        0x24044240:    39373533    3579    DCD    959919411
    $t.12
        0x24044244:    680a        .h      LDR      r2,[r1,#0]
        0x24044246:    f3c203c2    ....    UBFX     r3,r2,#3,#3
        0x2404424a:    2b05        .+      CMP      r3,#5
        0x2404424c:    d828        (.      BHI      0x240442a0 ; UART_SetConfig + 480
        0x2404424e:    2201        ."      MOVS     r2,#1
        0x24044250:    e8dff003    ....    TBB      [pc,r3]
    $d.13
        0x24044254:    2a28242f    /$(*    DCD    707273775
        0x24044258:    2e2c        ,.      DCW    11820
    $t.14
        0x2404425a:    680a        .h      LDR      r2,[r1,#0]
        0x2404425c:    f0020307    ....    AND      r3,r2,#7
        0x24044260:    2b05        .+      CMP      r3,#5
        0x24044262:    d81d        ..      BHI      0x240442a0 ; UART_SetConfig + 480
        0x24044264:    2200        ."      MOVS     r2,#0
        0x24044266:    e8dff003    ....    TBB      [pc,r3]
    $d.15
        0x2404426a:    1924        $.      DCW    6436
        0x2404426c:    23211f1d    ..!#    DCD    589373213
    $t.16
        0x24044270:    680a        .h      LDR      r2,[r1,#0]
        0x24044272:    f0020307    ....    AND      r3,r2,#7
        0x24044276:    2b05        .+      CMP      r3,#5
        0x24044278:    d812        ..      BHI      0x240442a0 ; UART_SetConfig + 480
        0x2404427a:    2200        ."      MOVS     r2,#0
        0x2404427c:    e8dff003    ....    TBB      [pc,r3]
    $d.17
        0x24044280:    14120e19    ....    DCD    336727577
        0x24044284:    1816        ..      DCW    6166
    $t.18
        0x24044286:    680a        .h      LDR      r2,[r1,#0]
        0x24044288:    f0020307    ....    AND      r3,r2,#7
        0x2404428c:    2b05        .+      CMP      r3,#5
        0x2404428e:    d807        ..      BHI      0x240442a0 ; UART_SetConfig + 480
        0x24044290:    2200        ."      MOVS     r2,#0
        0x24044292:    e8dff003    ....    TBB      [pc,r3]
    $d.19
        0x24044296:    030e        ..      DCW    782
        0x24044298:    0d0b0907    ....    DCD    218827015
    $t.20
        0x2404429c:    2204        ."      MOVS     r2,#4
        0x2404429e:    e008        ..      B        0x240442b2 ; UART_SetConfig + 498
        0x240442a0:    2280        ."      MOVS     r2,#0x80
        0x240442a2:    e006        ..      B        0x240442b2 ; UART_SetConfig + 498
        0x240442a4:    2208        ."      MOVS     r2,#8
        0x240442a6:    e004        ..      B        0x240442b2 ; UART_SetConfig + 498
        0x240442a8:    2210        ."      MOVS     r2,#0x10
        0x240442aa:    e002        ..      B        0x240442b2 ; UART_SetConfig + 498
        0x240442ac:    2220         "      MOVS     r2,#0x20
        0x240442ae:    e000        ..      B        0x240442b2 ; UART_SetConfig + 498
        0x240442b0:    2240        @"      MOVS     r2,#0x40
        0x240442b2:    6823        #h      LDR      r3,[r4,#0]
        0x240442b4:    4283        .B      CMP      r3,r0
        0x240442b6:    f6401000    @...    MOVW     r0,#0x900
        0x240442ba:    f2c0003d    ..=.    MOVT     r0,#0x3d
        0x240442be:    f0008053    ..S.    BEQ.W    0x24044368 ; UART_SetConfig + 680
        0x240442c2:    69e3        .i      LDR      r3,[r4,#0x1c]
        0x240442c4:    f5b34f00    ...O    CMP      r3,#0x8000
        0x240442c8:    f0408078    @.x.    BNE.W    0x240443bc ; UART_SetConfig + 764
        0x240442cc:    2a40        @*      CMP      r2,#0x40
        0x240442ce:    f200811a    ....    BHI.W    0x24044506 ; UART_SetConfig + 1094
        0x240442d2:    2500        .%      MOVS     r5,#0
        0x240442d4:    e8dff012    ....    TBH      [pc,r2,LSL #1]
    $d.21
        0x240442d8:    01120041    A...    DCD    17956929
        0x240442dc:    01170117    ....    DCD    18284823
        0x240442e0:    0117011b    ....    DCD    18284827
        0x240442e4:    01170117    ....    DCD    18284823
        0x240442e8:    0117011f    ....    DCD    18284831
        0x240442ec:    01170117    ....    DCD    18284823
        0x240442f0:    01170117    ....    DCD    18284823
        0x240442f4:    01170117    ....    DCD    18284823
        0x240442f8:    01170126    &...    DCD    18284838
        0x240442fc:    01170117    ....    DCD    18284823
        0x24044300:    01170117    ....    DCD    18284823
        0x24044304:    01170117    ....    DCD    18284823
        0x24044308:    01170117    ....    DCD    18284823
        0x2404430c:    01170117    ....    DCD    18284823
        0x24044310:    01170117    ....    DCD    18284823
        0x24044314:    01170117    ....    DCD    18284823
        0x24044318:    01170134    4...    DCD    18284852
        0x2404431c:    01170117    ....    DCD    18284823
        0x24044320:    01170117    ....    DCD    18284823
        0x24044324:    01170117    ....    DCD    18284823
        0x24044328:    01170117    ....    DCD    18284823
        0x2404432c:    01170117    ....    DCD    18284823
        0x24044330:    01170117    ....    DCD    18284823
        0x24044334:    01170117    ....    DCD    18284823
        0x24044338:    01170117    ....    DCD    18284823
        0x2404433c:    01170117    ....    DCD    18284823
        0x24044340:    01170117    ....    DCD    18284823
        0x24044344:    01170117    ....    DCD    18284823
        0x24044348:    01170117    ....    DCD    18284823
        0x2404434c:    01170117    ....    DCD    18284823
        0x24044350:    01170117    ....    DCD    18284823
        0x24044354:    01170117    ....    DCD    18284823
        0x24044358:    0131        1.      DCW    305
    $t.22
        0x2404435a:    2500        .%      MOVS     r5,#0
        0x2404435c:    f7fefb1c    ....    BL       HAL_RCC_GetPCLK1Freq ; 0x24042998
        0x24044360:    2800        .(      CMP      r0,#0
        0x24044362:    f04080ef    @...    BNE.W    0x24044544 ; UART_SetConfig + 1156
        0x24044366:    e149        I.      B        0x240445fc ; UART_SetConfig + 1340
        0x24044368:    1e93        ..      SUBS     r3,r2,#2
        0x2404436a:    2b1e        .+      CMP      r3,#0x1e
        0x2404436c:    f2008074    ..t.    BHI.W    0x24044458 ; UART_SetConfig + 920
        0x24044370:    2700        .'      MOVS     r7,#0
        0x24044372:    e8dff013    ....    TBH      [pc,r3,LSL #1]
    $d.23
        0x24044376:    001f        ..      DCW    31
        0x24044378:    007a0077    w.z.    DCD    7995511
        0x2404437c:    00770077    w.w.    DCD    7798903
        0x24044380:    007e0077    w.~.    DCD    8257655
        0x24044384:    00770077    w.w.    DCD    7798903
        0x24044388:    00770077    w.w.    DCD    7798903
        0x2404438c:    00770077    w.w.    DCD    7798903
        0x24044390:    00b80077    w...    DCD    12058743
        0x24044394:    00770077    w.w.    DCD    7798903
        0x24044398:    00770077    w.w.    DCD    7798903
        0x2404439c:    00770077    w.w.    DCD    7798903
        0x240443a0:    00770077    w.w.    DCD    7798903
        0x240443a4:    00770077    w.w.    DCD    7798903
        0x240443a8:    00770077    w.w.    DCD    7798903
        0x240443ac:    00770077    w.w.    DCD    7798903
        0x240443b0:    00830077    w...    DCD    8585335
    $t.24
        0x240443b4:    2700        .'      MOVS     r7,#0
        0x240443b6:    f7fdfacf    ....    BL       HAL_RCCEx_GetD3PCLK1Freq ; 0x24041958
        0x240443ba:    e05f        _.      B        0x2404447c ; UART_SetConfig + 956
        0x240443bc:    2a40        @*      CMP      r2,#0x40
        0x240443be:    f20080e6    ....    BHI.W    0x2404458e ; UART_SetConfig + 1230
        0x240443c2:    2500        .%      MOVS     r5,#0
        0x240443c4:    e8dff012    ....    TBH      [pc,r2,LSL #1]
    $d.25
        0x240443c8:    00de0041    A...    DCD    14549057
        0x240443cc:    00e300e3    ....    DCD    14876899
        0x240443d0:    00e300e7    ....    DCD    14876903
        0x240443d4:    00e300e3    ....    DCD    14876899
        0x240443d8:    00e300eb    ....    DCD    14876907
        0x240443dc:    00e300e3    ....    DCD    14876899
        0x240443e0:    00e300e3    ....    DCD    14876899
        0x240443e4:    00e300e3    ....    DCD    14876899
        0x240443e8:    00e300f2    ....    DCD    14876914
        0x240443ec:    00e300e3    ....    DCD    14876899
        0x240443f0:    00e300e3    ....    DCD    14876899
        0x240443f4:    00e300e3    ....    DCD    14876899
        0x240443f8:    00e300e3    ....    DCD    14876899
        0x240443fc:    00e300e3    ....    DCD    14876899
        0x24044400:    00e300e3    ....    DCD    14876899
        0x24044404:    00e300e3    ....    DCD    14876899
        0x24044408:    00e30100    ....    DCD    14876928
        0x2404440c:    00e300e3    ....    DCD    14876899
        0x24044410:    00e300e3    ....    DCD    14876899
        0x24044414:    00e300e3    ....    DCD    14876899
        0x24044418:    00e300e3    ....    DCD    14876899
        0x2404441c:    00e300e3    ....    DCD    14876899
        0x24044420:    00e300e3    ....    DCD    14876899
        0x24044424:    00e300e3    ....    DCD    14876899
        0x24044428:    00e300e3    ....    DCD    14876899
        0x2404442c:    00e300e3    ....    DCD    14876899
        0x24044430:    00e300e3    ....    DCD    14876899
        0x24044434:    00e300e3    ....    DCD    14876899
        0x24044438:    00e300e3    ....    DCD    14876899
        0x2404443c:    00e300e3    ....    DCD    14876899
        0x24044440:    00e300e3    ....    DCD    14876899
        0x24044444:    00e300e3    ....    DCD    14876899
        0x24044448:    00fd        ..      DCW    253
    $t.26
        0x2404444a:    2500        .%      MOVS     r5,#0
        0x2404444c:    f7fefaa4    ....    BL       HAL_RCC_GetPCLK1Freq ; 0x24042998
        0x24044450:    2800        .(      CMP      r0,#0
        0x24044452:    f04080ba    @...    BNE.W    0x240445ca ; UART_SetConfig + 1290
        0x24044456:    e0d1        ..      B        0x240445fc ; UART_SetConfig + 1340
        0x24044458:    2a40        @*      CMP      r2,#0x40
        0x2404445a:    d103        ..      BNE      0x24044464 ; UART_SetConfig + 932
        0x2404445c:    f44f4000    O..@    MOV      r0,#0x8000
        0x24044460:    2700        .'      MOVS     r7,#0
        0x24044462:    e00b        ..      B        0x2404447c ; UART_SetConfig + 956
        0x24044464:    2000        .       MOVS     r0,#0
        0x24044466:    2701        .'      MOVS     r7,#1
        0x24044468:    e008        ..      B        0x2404447c ; UART_SetConfig + 956
        0x2404446a:    4668        hF      MOV      r0,sp
        0x2404446c:    f7fdfa88    ....    BL       HAL_RCCEx_GetPLL2ClockFreq ; 0x24041980
        0x24044470:    e002        ..      B        0x24044478 ; UART_SetConfig + 952
        0x24044472:    4668        hF      MOV      r0,sp
        0x24044474:    f7fdfb18    ....    BL       HAL_RCCEx_GetPLL3ClockFreq ; 0x24041aa8
        0x24044478:    2700        .'      MOVS     r7,#0
        0x2404447a:    9801        ..      LDR      r0,[sp,#4]
        0x2404447c:    b378        x.      CBZ      r0,0x240444de ; UART_SetConfig + 1054
        0x2404447e:    6a61        aj      LDR      r1,[r4,#0x24]
        0x24044480:    f64402ae    D...    MOV      r2,#0x48ae
        0x24044484:    f2c24204    ...B    MOVT     r2,#0x2404
        0x24044488:    6866        fh      LDR      r6,[r4,#4]
        0x2404448a:    2501        .%      MOVS     r5,#1
        0x2404448c:    f8322011    2..     LDRH     r2,[r2,r1,LSL #1]
        0x24044490:    eb060346    ..F.    ADD      r3,r6,r6,LSL #1
        0x24044494:    fbb0f1f2    ....    UDIV     r1,r0,r2
        0x24044498:    4299        .B      CMP      r1,r3
        0x2404449a:    f0c080af    ....    BCC.W    0x240445fc ; UART_SetConfig + 1340
        0x2404449e:    0333        3.      LSLS     r3,r6,#12
        0x240444a0:    4299        .B      CMP      r1,r3
        0x240444a2:    f20080ab    ....    BHI.W    0x240445fc ; UART_SetConfig + 1340
        0x240444a6:    2100        .!      MOVS     r1,#0
        0x240444a8:    2300        .#      MOVS     r3,#0
        0x240444aa:    f7fcff60    ..`.    BL       __aeabi_uldivmod ; 0x2404136e
        0x240444ae:    0209        ..      LSLS     r1,r1,#8
        0x240444b0:    2300        .#      MOVS     r3,#0
        0x240444b2:    ea416110    A..a    ORR      r1,r1,r0,LSR #24
        0x240444b6:    4632        2F      MOV      r2,r6
        0x240444b8:    0200        ..      LSLS     r0,r0,#8
        0x240444ba:    eb100056    ..V.    ADDS     r0,r0,r6,LSR #1
        0x240444be:    f1410100    A...    ADC      r1,r1,#0
        0x240444c2:    f7fcff54    ..T.    BL       __aeabi_uldivmod ; 0x2404136e
        0x240444c6:    f64f42ff    O..B    MOV      r2,#0xfcff
        0x240444ca:    f5a07140    ..@q    SUB      r1,r0,#0x300
        0x240444ce:    f2c0020f    ....    MOVT     r2,#0xf
        0x240444d2:    4291        .B      CMP      r1,r2
        0x240444d4:    d805        ..      BHI      0x240444e2 ; UART_SetConfig + 1058
        0x240444d6:    6821        !h      LDR      r1,[r4,#0]
        0x240444d8:    463d        =F      MOV      r5,r7
        0x240444da:    60c8        .`      STR      r0,[r1,#0xc]
        0x240444dc:    e08e        ..      B        0x240445fc ; UART_SetConfig + 1340
        0x240444de:    463d        =F      MOV      r5,r7
        0x240444e0:    e08c        ..      B        0x240445fc ; UART_SetConfig + 1340
        0x240444e2:    2501        .%      MOVS     r5,#1
        0x240444e4:    e08a        ..      B        0x240445fc ; UART_SetConfig + 1340
        0x240444e6:    f8510c54    Q.T.    LDR      r0,[r1,#-0x54]
        0x240444ea:    0680        ..      LSLS     r0,r0,#26
        0x240444ec:    f2490000    I...    MOVW     r0,#0x9000
        0x240444f0:    f2c030d0    ...0    MOVT     r0,#0x3d0
        0x240444f4:    f100808b    ....    BMI.W    0x2404460e ; UART_SetConfig + 1358
        0x240444f8:    2700        .'      MOVS     r7,#0
        0x240444fa:    e7bf        ..      B        0x2404447c ; UART_SetConfig + 956
        0x240444fc:    2500        .%      MOVS     r5,#0
        0x240444fe:    f7fefa5f    .._.    BL       HAL_RCC_GetPCLK2Freq ; 0x240429c0
        0x24044502:    b9f8        ..      CBNZ     r0,0x24044544 ; UART_SetConfig + 1156
        0x24044504:    e07a        z.      B        0x240445fc ; UART_SetConfig + 1340
        0x24044506:    2000        .       MOVS     r0,#0
        0x24044508:    2501        .%      MOVS     r5,#1
        0x2404450a:    b9d8        ..      CBNZ     r0,0x24044544 ; UART_SetConfig + 1156
        0x2404450c:    e076        v.      B        0x240445fc ; UART_SetConfig + 1340
        0x2404450e:    4668        hF      MOV      r0,sp
        0x24044510:    f7fdfa36    ..6.    BL       HAL_RCCEx_GetPLL2ClockFreq ; 0x24041980
        0x24044514:    e002        ..      B        0x2404451c ; UART_SetConfig + 1116
        0x24044516:    4668        hF      MOV      r0,sp
        0x24044518:    f7fdfac6    ....    BL       HAL_RCCEx_GetPLL3ClockFreq ; 0x24041aa8
        0x2404451c:    2500        .%      MOVS     r5,#0
        0x2404451e:    9801        ..      LDR      r0,[sp,#4]
        0x24044520:    b980        ..      CBNZ     r0,0x24044544 ; UART_SetConfig + 1156
        0x24044522:    e06b        k.      B        0x240445fc ; UART_SetConfig + 1340
        0x24044524:    f8510c54    Q.T.    LDR      r0,[r1,#-0x54]
        0x24044528:    0680        ..      LSLS     r0,r0,#26
        0x2404452a:    f2490000    I...    MOVW     r0,#0x9000
        0x2404452e:    f2c030d0    ...0    MOVT     r0,#0x3d0
        0x24044532:    d473        s.      BMI      0x2404461c ; UART_SetConfig + 1372
        0x24044534:    2500        .%      MOVS     r5,#0
        0x24044536:    b928        (.      CBNZ     r0,0x24044544 ; UART_SetConfig + 1156
        0x24044538:    e060        `.      B        0x240445fc ; UART_SetConfig + 1340
        0x2404453a:    f44f4000    O..@    MOV      r0,#0x8000
        0x2404453e:    2500        .%      MOVS     r5,#0
        0x24044540:    2800        .(      CMP      r0,#0
        0x24044542:    d05b        [.      BEQ      0x240445fc ; UART_SetConfig + 1340
        0x24044544:    6a61        aj      LDR      r1,[r4,#0x24]
        0x24044546:    f64402ae    D...    MOV      r2,#0x48ae
        0x2404454a:    f2c24204    ...B    MOVT     r2,#0x2404
        0x2404454e:    f8321011    2...    LDRH     r1,[r2,r1,LSL #1]
        0x24044552:    6862        bh      LDR      r2,[r4,#4]
        0x24044554:    fbb0f0f1    ....    UDIV     r0,r0,r1
        0x24044558:    0851        Q.      LSRS     r1,r2,#1
        0x2404455a:    eb010040    ..@.    ADD      r0,r1,r0,LSL #1
        0x2404455e:    fbb0f0f2    ....    UDIV     r0,r0,r2
        0x24044562:    f1a00110    ....    SUB      r1,r0,#0x10
        0x24044566:    f64f72ef    O..r    MOV      r2,#0xffef
        0x2404456a:    4291        .B      CMP      r1,r2
        0x2404456c:    d808        ..      BHI      0x24044580 ; UART_SetConfig + 1216
        0x2404456e:    f64f71f0    O..q    MOV      r1,#0xfff0
        0x24044572:    6822        "h      LDR      r2,[r4,#0]
        0x24044574:    4001        .@      ANDS     r1,r1,r0
        0x24044576:    f3c00042    ..B.    UBFX     r0,r0,#1,#3
        0x2404457a:    4408        .D      ADD      r0,r0,r1
        0x2404457c:    60d0        .`      STR      r0,[r2,#0xc]
        0x2404457e:    e03d        =.      B        0x240445fc ; UART_SetConfig + 1340
        0x24044580:    2501        .%      MOVS     r5,#1
        0x24044582:    e03b        ;.      B        0x240445fc ; UART_SetConfig + 1340
        0x24044584:    2500        .%      MOVS     r5,#0
        0x24044586:    f7fefa1b    ....    BL       HAL_RCC_GetPCLK2Freq ; 0x240429c0
        0x2404458a:    b9f0        ..      CBNZ     r0,0x240445ca ; UART_SetConfig + 1290
        0x2404458c:    e036        6.      B        0x240445fc ; UART_SetConfig + 1340
        0x2404458e:    2000        .       MOVS     r0,#0
        0x24044590:    2501        .%      MOVS     r5,#1
        0x24044592:    b9d0        ..      CBNZ     r0,0x240445ca ; UART_SetConfig + 1290
        0x24044594:    e032        2.      B        0x240445fc ; UART_SetConfig + 1340
        0x24044596:    4668        hF      MOV      r0,sp
        0x24044598:    f7fdf9f2    ....    BL       HAL_RCCEx_GetPLL2ClockFreq ; 0x24041980
        0x2404459c:    e002        ..      B        0x240445a4 ; UART_SetConfig + 1252
        0x2404459e:    4668        hF      MOV      r0,sp
        0x240445a0:    f7fdfa82    ....    BL       HAL_RCCEx_GetPLL3ClockFreq ; 0x24041aa8
        0x240445a4:    2500        .%      MOVS     r5,#0
        0x240445a6:    9801        ..      LDR      r0,[sp,#4]
        0x240445a8:    b978        x.      CBNZ     r0,0x240445ca ; UART_SetConfig + 1290
        0x240445aa:    e027        '.      B        0x240445fc ; UART_SetConfig + 1340
        0x240445ac:    f8510c54    Q.T.    LDR      r0,[r1,#-0x54]
        0x240445b0:    0680        ..      LSLS     r0,r0,#26
        0x240445b2:    f2490000    I...    MOVW     r0,#0x9000
        0x240445b6:    f2c030d0    ...0    MOVT     r0,#0x3d0
        0x240445ba:    d439        9.      BMI      0x24044630 ; UART_SetConfig + 1392
        0x240445bc:    2500        .%      MOVS     r5,#0
        0x240445be:    b920         .      CBNZ     r0,0x240445ca ; UART_SetConfig + 1290
        0x240445c0:    e01c        ..      B        0x240445fc ; UART_SetConfig + 1340
        0x240445c2:    f44f4000    O..@    MOV      r0,#0x8000
        0x240445c6:    2500        .%      MOVS     r5,#0
        0x240445c8:    b1c0        ..      CBZ      r0,0x240445fc ; UART_SetConfig + 1340
        0x240445ca:    6a61        aj      LDR      r1,[r4,#0x24]
        0x240445cc:    f64402ae    D...    MOV      r2,#0x48ae
        0x240445d0:    f2c24204    ...B    MOVT     r2,#0x2404
        0x240445d4:    f8321011    2...    LDRH     r1,[r2,r1,LSL #1]
        0x240445d8:    6862        bh      LDR      r2,[r4,#4]
        0x240445da:    fbb0f0f1    ....    UDIV     r0,r0,r1
        0x240445de:    eb000052    ..R.    ADD      r0,r0,r2,LSR #1
        0x240445e2:    fbb0f0f2    ....    UDIV     r0,r0,r2
        0x240445e6:    f1a00110    ....    SUB      r1,r0,#0x10
        0x240445ea:    f64f72ef    O..r    MOV      r2,#0xffef
        0x240445ee:    4291        .B      CMP      r1,r2
        0x240445f0:    d803        ..      BHI      0x240445fa ; UART_SetConfig + 1338
        0x240445f2:    b280        ..      UXTH     r0,r0
        0x240445f4:    6821        !h      LDR      r1,[r4,#0]
        0x240445f6:    60c8        .`      STR      r0,[r1,#0xc]
        0x240445f8:    e000        ..      B        0x240445fc ; UART_SetConfig + 1340
        0x240445fa:    2501        .%      MOVS     r5,#1
        0x240445fc:    f04f1001    O...    MOV      r0,#0x10001
        0x24044600:    66a0        .f      STR      r0,[r4,#0x68]
        0x24044602:    2000        .       MOVS     r0,#0
        0x24044604:    e9c4001c    ....    STRD     r0,r0,[r4,#0x70]
        0x24044608:    4628        (F      MOV      r0,r5
        0x2404460a:    b003        ..      ADD      sp,sp,#0xc
        0x2404460c:    bdf0        ..      POP      {r4-r7,pc}
        0x2404460e:    f8511c54    Q.T.    LDR      r1,[r1,#-0x54]
        0x24044612:    2700        .'      MOVS     r7,#0
        0x24044614:    f3c101c1    ....    UBFX     r1,r1,#3,#2
        0x24044618:    40c8        .@      LSRS     r0,r0,r1
        0x2404461a:    e72f        /.      B        0x2404447c ; UART_SetConfig + 956
        0x2404461c:    f8511c54    Q.T.    LDR      r1,[r1,#-0x54]
        0x24044620:    2500        .%      MOVS     r5,#0
        0x24044622:    f3c101c1    ....    UBFX     r1,r1,#3,#2
        0x24044626:    40c8        .@      LSRS     r0,r0,r1
        0x24044628:    2800        .(      CMP      r0,#0
        0x2404462a:    f47faf8b    ....    BNE.W    0x24044544 ; UART_SetConfig + 1156
        0x2404462e:    e7e5        ..      B        0x240445fc ; UART_SetConfig + 1340
        0x24044630:    f8511c54    Q.T.    LDR      r1,[r1,#-0x54]
        0x24044634:    2500        .%      MOVS     r5,#0
        0x24044636:    f3c101c1    ....    UBFX     r1,r1,#3,#2
        0x2404463a:    40c8        .@      LSRS     r0,r0,r1
        0x2404463c:    2800        .(      CMP      r0,#0
        0x2404463e:    d1c4        ..      BNE      0x240445ca ; UART_SetConfig + 1290
        0x24044640:    e7dc        ..      B        0x240445fc ; UART_SetConfig + 1340
        0x24044642:    0000        ..      MOVS     r0,r0
        0x24044644:    0000        ..      MOVS     r0,r0
        0x24044646:    0000        ..      MOVS     r0,r0
    UART_WaitOnFlagUntilTimeout
        0x24044648:    e92d43f0    -..C    PUSH     {r4-r9,lr}
        0x2404464c:    b081        ..      SUB      sp,sp,#4
        0x2404464e:    4604        .F      MOV      r4,r0
        0x24044650:    6800        .h      LDR      r0,[r0,#0]
        0x24044652:    69c0        .i      LDR      r0,[r0,#0x1c]
        0x24044654:    4008        .@      ANDS     r0,r0,r1
        0x24044656:    1a40        @.      SUBS     r0,r0,r1
        0x24044658:    fab0f080    ....    CLZ      r0,r0
        0x2404465c:    0940        @.      LSRS     r0,r0,#5
        0x2404465e:    4290        .B      CMP      r0,r2
        0x24044660:    d164        d.      BNE      0x2404472c ; UART_WaitOnFlagUntilTimeout + 228
        0x24044662:    f8dd8020    .. .    LDR      r8,[sp,#0x20]
        0x24044666:    460d        .F      MOV      r5,r1
        0x24044668:    4616        .F      MOV      r6,r2
        0x2404466a:    4699        .F      MOV      r9,r3
        0x2404466c:    f1080701    ....    ADD      r7,r8,#1
        0x24044670:    e009        ..      B        0x24044686 ; UART_WaitOnFlagUntilTimeout + 62
        0x24044672:    bf00        ..      NOP      
        0x24044674:    6820         h      LDR      r0,[r4,#0]
        0x24044676:    69c0        .i      LDR      r0,[r0,#0x1c]
        0x24044678:    4028        (@      ANDS     r0,r0,r5
        0x2404467a:    1b40        @.      SUBS     r0,r0,r5
        0x2404467c:    fab0f080    ....    CLZ      r0,r0
        0x24044680:    0940        @.      LSRS     r0,r0,#5
        0x24044682:    42b0        .B      CMP      r0,r6
        0x24044684:    d152        R.      BNE      0x2404472c ; UART_WaitOnFlagUntilTimeout + 228
        0x24044686:    2f00        ./      CMP      r7,#0
        0x24044688:    d0f4        ..      BEQ      0x24044674 ; UART_WaitOnFlagUntilTimeout + 44
        0x2404468a:    f7fdf89d    ....    BL       HAL_GetTick ; 0x240417c8
        0x2404468e:    f1b80f00    ....    CMP      r8,#0
        0x24044692:    d02b        +.      BEQ      0x240446ec ; UART_WaitOnFlagUntilTimeout + 164
        0x24044694:    eba00009    ....    SUB      r0,r0,r9
        0x24044698:    4540        @E      CMP      r0,r8
        0x2404469a:    d827        '.      BHI      0x240446ec ; UART_WaitOnFlagUntilTimeout + 164
        0x2404469c:    6820         h      LDR      r0,[r4,#0]
        0x2404469e:    6801        .h      LDR      r1,[r0,#0]
        0x240446a0:    0749        I.      LSLS     r1,r1,#29
        0x240446a2:    bf44        D.      ITT      MI
        0x240446a4:    69c1        .i      LDRMI    r1,[r0,#0x1c]
        0x240446a6:    ea5f5101    _..Q    LSLSMI   r1,r1,#20
        0x240446aa:    d5e3        ..      BPL      0x24044674 ; UART_WaitOnFlagUntilTimeout + 44
        0x240446ac:    f44f6100    O..a    MOV      r1,#0x800
        0x240446b0:    6201        .b      STR      r1,[r0,#0x20]
        0x240446b2:    bf00        ..      NOP      
        0x240446b4:    6820         h      LDR      r0,[r4,#0]
        0x240446b6:    e8500f00    P...    LDREX    r0,[r0]
        0x240446ba:    6821        !h      LDR      r1,[r4,#0]
        0x240446bc:    f42070d0     ..p    BIC      r0,r0,#0x1a0
        0x240446c0:    e8410200    A...    STREX    r2,r0,[r1]
        0x240446c4:    2a00        .*      CMP      r2,#0
        0x240446c6:    d1f5        ..      BNE      0x240446b4 ; UART_WaitOnFlagUntilTimeout + 108
        0x240446c8:    6820         h      LDR      r0,[r4,#0]
        0x240446ca:    e8500f02    P...    LDREX    r0,[r0,#8]
        0x240446ce:    6821        !h      LDR      r1,[r4,#0]
        0x240446d0:    f0200001     ...    BIC      r0,r0,#1
        0x240446d4:    e8410202    A...    STREX    r2,r0,[r1,#8]
        0x240446d8:    2a00        .*      CMP      r2,#0
        0x240446da:    d1f5        ..      BNE      0x240446c8 ; UART_WaitOnFlagUntilTimeout + 128
        0x240446dc:    2020                MOVS     r0,#0x20
        0x240446de:    f8c40084    ....    STR      r0,[r4,#0x84]
        0x240446e2:    f8c40088    ....    STR      r0,[r4,#0x88]
        0x240446e6:    f8c4008c    ....    STR      r0,[r4,#0x8c]
        0x240446ea:    e018        ..      B        0x2404471e ; UART_WaitOnFlagUntilTimeout + 214
        0x240446ec:    6820         h      LDR      r0,[r4,#0]
        0x240446ee:    e8500f00    P...    LDREX    r0,[r0]
        0x240446f2:    6821        !h      LDR      r1,[r4,#0]
        0x240446f4:    f42070d0     ..p    BIC      r0,r0,#0x1a0
        0x240446f8:    e8410200    A...    STREX    r2,r0,[r1]
        0x240446fc:    2a00        .*      CMP      r2,#0
        0x240446fe:    d1f5        ..      BNE      0x240446ec ; UART_WaitOnFlagUntilTimeout + 164
        0x24044700:    6820         h      LDR      r0,[r4,#0]
        0x24044702:    e8500f02    P...    LDREX    r0,[r0,#8]
        0x24044706:    6821        !h      LDR      r1,[r4,#0]
        0x24044708:    f0200001     ...    BIC      r0,r0,#1
        0x2404470c:    e8410202    A...    STREX    r2,r0,[r1,#8]
        0x24044710:    2a00        .*      CMP      r2,#0
        0x24044712:    d1f5        ..      BNE      0x24044700 ; UART_WaitOnFlagUntilTimeout + 184
        0x24044714:    2020                MOVS     r0,#0x20
        0x24044716:    f8c40084    ....    STR      r0,[r4,#0x84]
        0x2404471a:    f8c40088    ....    STR      r0,[r4,#0x88]
        0x2404471e:    2000        .       MOVS     r0,#0
        0x24044720:    f8840080    ....    STRB     r0,[r4,#0x80]
        0x24044724:    2003        .       MOVS     r0,#3
        0x24044726:    b001        ..      ADD      sp,sp,#4
        0x24044728:    e8bd83f0    ....    POP      {r4-r9,pc}
        0x2404472c:    2000        .       MOVS     r0,#0
        0x2404472e:    b001        ..      ADD      sp,sp,#4
        0x24044730:    e8bd83f0    ....    POP      {r4-r9,pc}
        0x24044734:    0000        ..      MOVS     r0,r0
        0x24044736:    0000        ..      MOVS     r0,r0
    UsageFault_Handler
        0x24044738:    e7fe        ..      B        UsageFault_Handler ; 0x24044738
        0x2404473a:    0000        ..      MOVS     r0,r0
        0x2404473c:    0000        ..      MOVS     r0,r0
        0x2404473e:    0000        ..      MOVS     r0,r0
    __NVIC_EnableIRQ
        0x24044740:    2800        .(      CMP      r0,#0
        0x24044742:    bf48        H.      IT       MI
        0x24044744:    4770        pG      BXMI     lr
        0x24044746:    f000011f    ....    AND      r1,r0,#0x1f
        0x2404474a:    2201        ."      MOVS     r2,#1
        0x2404474c:    fa02f101    ....    LSL      r1,r2,r1
        0x24044750:    f24e1200    N...    MOVW     r2,#0xe100
        0x24044754:    0940        @.      LSRS     r0,r0,#5
        0x24044756:    f2ce0200    ....    MOVT     r2,#0xe000
        0x2404475a:    f8421020    B. .    STR      r1,[r2,r0,LSL #2]
        0x2404475e:    4770        pG      BX       lr
    __NVIC_GetPriorityGrouping
        0x24044760:    f64e500c    N..P    MOV      r0,#0xed0c
        0x24044764:    f2ce0000    ....    MOVT     r0,#0xe000
        0x24044768:    6800        .h      LDR      r0,[r0,#0]
        0x2404476a:    f3c02002    ...     UBFX     r0,r0,#8,#3
        0x2404476e:    4770        pG      BX       lr
    __NVIC_SetPriority
        0x24044770:    f64e5314    N..S    MOV      r3,#0xed14
        0x24044774:    f000020f    ....    AND      r2,r0,#0xf
        0x24044778:    f2ce0300    ....    MOVT     r3,#0xe000
        0x2404477c:    f1b03fff    ...?    CMP      r0,#0xffffffff
        0x24044780:    441a        .D      ADD      r2,r2,r3
        0x24044782:    f1004360    ..`C    ADD      r3,r0,#0xe0000000
        0x24044786:    bfc8        ..      IT       GT
        0x24044788:    f5034264    ..dB    ADDGT    r2,r3,#0xe400
        0x2404478c:    0108        ..      LSLS     r0,r1,#4
        0x2404478e:    7010        .p      STRB     r0,[r2,#0]
        0x24044790:    4770        pG      BX       lr
        0x24044792:    0000        ..      MOVS     r0,r0
        0x24044794:    0000        ..      MOVS     r0,r0
        0x24044796:    0000        ..      MOVS     r0,r0
    __NVIC_SetPriorityGrouping
        0x24044798:    f64e510c    N..Q    MOV      r1,#0xed0c
        0x2404479c:    f64f03ff    O...    MOV      r3,#0xf8ff
        0x240447a0:    f2ce0100    ....    MOVT     r1,#0xe000
        0x240447a4:    680a        .h      LDR      r2,[r1,#0]
        0x240447a6:    401a        .@      ANDS     r2,r2,r3
        0x240447a8:    f360220a    `.."    BFI      r2,r0,#8,#3
        0x240447ac:    f0426080    B..`    ORR      r0,r2,#0x4000000
        0x240447b0:    f04070fd    @..p    ORR      r0,r0,#0x1fa0000
        0x240447b4:    6008        .`      STR      r0,[r1,#0]
        0x240447b6:    4770        pG      BX       lr
    _sys_exit
        0x240447b8:    4770        pG      BX       lr
        0x240447ba:    0000        ..      MOVS     r0,r0
        0x240447bc:    0000        ..      MOVS     r0,r0
        0x240447be:    0000        ..      MOVS     r0,r0
    fputc
        0x240447c0:    b580        ..      PUSH     {r7,lr}
        0x240447c2:    b082        ..      SUB      sp,sp,#8
        0x240447c4:    9001        ..      STR      r0,[sp,#4]
        0x240447c6:    f64410fc    D...    MOV      r0,#0x49fc
        0x240447ca:    f2c24004    ...@    MOVT     r0,#0x2404
        0x240447ce:    a901        ..      ADD      r1,sp,#4
        0x240447d0:    2201        ."      MOVS     r2,#1
        0x240447d2:    230a        .#      MOVS     r3,#0xa
        0x240447d4:    f7feffa4    ....    BL       HAL_UART_Transmit ; 0x24043720
        0x240447d8:    9801        ..      LDR      r0,[sp,#4]
        0x240447da:    b002        ..      ADD      sp,sp,#8
        0x240447dc:    bd80        ..      POP      {r7,pc}
        0x240447de:    0000        ..      MOVS     r0,r0
    main
        0x240447e0:    f7fdf80a    ....    BL       HAL_Init ; 0x240417f8
        0x240447e4:    f7fffa04    ....    BL       SystemClock_Config ; 0x24043bf0
        0x240447e8:    f7fff80e    ....    BL       MX_GPIO_Init ; 0x24043808
        0x240447ec:    f7fff85c    ..\.    BL       MX_USART1_UART_Init ; 0x240438a8
        0x240447f0:    f7fff82e    ....    BL       MX_TIM6_Init ; 0x24043850
        0x240447f4:    f000f804    ....    BL       run ; 0x24044800
        0x240447f8:    e7fe        ..      B        0x240447f8 ; main + 24
        0x240447fa:    0000        ..      MOVS     r0,r0
        0x240447fc:    0000        ..      MOVS     r0,r0
        0x240447fe:    0000        ..      MOVS     r0,r0
    run
        0x24044800:    a017        ..      ADR      r0,{pc}+0x60 ; 0x24044860
        0x24044802:    f7fcfe2d    ..-.    BL       puts ; 0x24041460
        0x24044806:    f64410b0    D...    MOV      r0,#0x49b0
        0x2404480a:    f2c24004    ...@    MOVT     r0,#0x2404
        0x2404480e:    f7fefd4f    ..O.    BL       HAL_TIM_Base_Start_IT ; 0x240432b0
        0x24044812:    2400        .$      MOVS     r4,#0
        0x24044814:    a514        ..      ADR      r5,{pc}+0x54 ; 0x24044868
        0x24044816:    f6c50402    ....    MOVT     r4,#0x5802
        0x2404481a:    a616        ..      ADR      r6,{pc}+0x5a ; 0x24044874
        0x2404481c:    a718        ..      ADR      r7,{pc}+0x64 ; 0x24044880
        0x2404481e:    e006        ..      B        0x2404482e ; run + 46
        0x24044820:    4638        8F      MOV      r0,r7
        0x24044822:    f7fcfe1d    ....    BL       puts ; 0x24041460
        0x24044826:    f44f70fa    O..p    MOV      r0,#0x1f4
        0x2404482a:    f7fcfed9    ....    BL       HAL_Delay ; 0x240415e0
        0x2404482e:    2104        .!      MOVS     r1,#4
        0x24044830:    4620         F      MOV      r0,r4
        0x24044832:    f7fcffb9    ....    BL       HAL_GPIO_ReadPin ; 0x240417a8
        0x24044836:    2800        .(      CMP      r0,#0
        0x24044838:    d1f2        ..      BNE      0x24044820 ; run + 32
        0x2404483a:    4628        (F      MOV      r0,r5
        0x2404483c:    f7fcfe10    ....    BL       puts ; 0x24041460
        0x24044840:    f3ef8010    ....    MRS      r0,PRIMASK
        0x24044844:    b672        r.      CPSID    i
        0x24044846:    f7fdff9f    ....    BL       HAL_RCC_DeInit ; 0x24042788
        0x2404484a:    f7fcfe8d    ....    BL       HAL_DeInit ; 0x24041568
        0x2404484e:    f04f6000    O..`    MOV      r0,#0x8000000
        0x24044852:    f7fcfd77    ..w.    BL       start_app ; 0x24041344
        0x24044856:    4630        0F      MOV      r0,r6
        0x24044858:    f7fcfe02    ....    BL       puts ; 0x24041460
        0x2404485c:    e7e0        ..      B        0x24044820 ; run + 32
        0x2404485e:    bf00        ..      NOP      
    $d.4
        0x24044860:    32505041    APP2    DCD    844124225
        0x24044864:    00000000    ....    DCD    0
        0x24044868:    fcbcb4b0    ....    DCD    4240225456
        0x2404486c:    c2cfb4b0    ....    DCD    3268392112
        0x24044870:    0000cbc1    ....    DCD    52161
        0x24044874:    aad7f8cc    ....    DCD    2866280652
        0x24044878:    dcb0a7ca    ....    DCD    3702564810
        0x2404487c:    00000000    ....    DCD    0
        0x24044880:    00505041    APP.    DCD    5263425
    $t
    x$fpl$fpinit
    $v0
    _fp_init
        0x24044884:    eef10a10    ....    VMRS     r0,FPSCR
        0x24044888:    f64f71ff    O..q    MOV      r1,#0xffff
        0x2404488c:    f2c031c0    ...1    MOVT     r1,#0x3c0
        0x24044890:    ea200001     ...    BIC      r0,r0,r1
        0x24044894:    f0407040    @.@p    ORR      r0,r0,#0x3000000
        0x24044898:    eee10a10    ....    VMSR     FPSCR,r0
    __fplib_config_fpu_vfp
    __fplib_config_pureend_doubles
        0x2404489c:    4770        pG      BX       lr
    $d.realdata
    D1CorePrescTable
        0x2404489e:    0000        ..      DCW    0
        0x240448a0:    02010000    ....    DCD    33619968
        0x240448a4:    02010403    ....    DCD    33620995
        0x240448a8:    07060403    ....    DCD    117834755
        0x240448ac:    0908        ..      DCW    2312
    UARTPrescTable
        0x240448ae:    0001        ..      DCW    1
        0x240448b0:    00040002    ....    DCD    262146
        0x240448b4:    00080006    ....    DCD    524294
        0x240448b8:    000c000a    ....    DCD    786442
        0x240448bc:    00200010    .. .    DCD    2097168
        0x240448c0:    00800040    @...    DCD    8388672
        0x240448c4:    0100        ..      DCW    256
    UARTEx_SetNbDataToProcess.numerator
        0x240448c6:    0101        ..      DCW    257
        0x240448c8:    01070301    ....    DCD    17236737
        0x240448cc:    0000        ..      DCW    0
    UARTEx_SetNbDataToProcess.denominator
        0x240448ce:    0408        ..      DCW    1032
        0x240448d0:    01080402    ....    DCD    17302530
        0x240448d4:    00000101    ....    DCD    257
    Region$$Table$$Base
        0x240448d8:    240448f8    .H.$    DCD    604260600
        0x240448dc:    240448f8    .H.$    DCD    604260600
        0x240448e0:    00000798    ....    DCD    1944
        0x240448e4:    240412d4    ...$    DCD    604246740
    Region$$Table$$Limit

** Section #2 'ER_IROM1' (SHT_PROGBITS) [SHF_ALLOC + SHF_WRITE]
    Size   : 16 bytes (alignment 4)
    Address: 0x240448e8


** Section #3 'ER_IROM1' (SHT_NOBITS) [SHF_ALLOC + SHF_WRITE]
    Size   : 1944 bytes (alignment 8)
    Address: 0x240448f8


** Section #4 '.debug_abbrev' (SHT_PROGBITS)
    Size   : 6210 bytes


** Section #5 '.debug_frame' (SHT_PROGBITS)
    Size   : 10700 bytes


** Section #6 '.debug_info' (SHT_PROGBITS)
    Size   : 69715 bytes


** Section #7 '.debug_line' (SHT_PROGBITS)
    Size   : 50391 bytes


** Section #8 '.debug_loc' (SHT_PROGBITS)
    Size   : 40898 bytes


** Section #9 '.debug_str' (SHT_PROGBITS)
    Size   : 51077 bytes


** Section #10 '.debug_ranges' (SHT_PROGBITS)
    Size   : 3872 bytes


** Section #11 '.symtab' (SHT_SYMTAB)
    Size   : 8640 bytes (alignment 4)
    String table #12 '.strtab'
    Last local symbol no. 239


** Section #12 '.strtab' (SHT_STRTAB)
    Size   : 8864 bytes


** Section #13 '.note' (SHT_NOTE)
    Size   : 28 bytes (alignment 4)


** Section #14 '.comment' (SHT_PROGBITS)
    Size   : 1768 bytes


** Section #15 '.shstrtab' (SHT_STRTAB)
    Size   : 148 bytes


address     size       variable name                            type
0x2404489e  0x10       D1CorePrescTable                         array[16] of const uint8_t

address     size       variable name                            type
0x240448e8  0x4        SystemCoreClock                          uint32_t

address     size       variable name                            type
0x240448ec  0x4        SystemD2Clock                            uint32_t

address     size       variable name                            type
0x240448ae  0x18       UARTPrescTable                           array[12] of const uint16_t

address     size       variable name                            type
0x24044a8c  0x4        uwTick                                   volatile uint32_t

address     size       variable name                            type
0x240448f0  0x1        uwTickFreq                               HAL_TickFreqTypeDef

address     size       variable name                            type
0x240448f4  0x4        uwTickPrio                               uint32_t

address     size       variable name                            type
0x240449fc  0x90       huart1                                   UART_HandleTypeDef
0x240449fc  0x4        huart1.Instance                          pointer to USART_TypeDef
0x24044a00  0x24       huart1.Init                              UART_InitTypeDef
0x24044a00  0x4        huart1.Init.BaudRate                     uint32_t
0x24044a04  0x4        huart1.Init.WordLength                   uint32_t
0x24044a08  0x4        huart1.Init.StopBits                     uint32_t
0x24044a0c  0x4        huart1.Init.Parity                       uint32_t
0x24044a10  0x4        huart1.Init.Mode                         uint32_t
0x24044a14  0x4        huart1.Init.HwFlowCtl                    uint32_t
0x24044a18  0x4        huart1.Init.OverSampling                 uint32_t
0x24044a1c  0x4        huart1.Init.OneBitSampling               uint32_t
0x24044a20  0x4        huart1.Init.ClockPrescaler               uint32_t
0x24044a24  0x28       huart1.AdvancedInit                      UART_AdvFeatureInitTypeDef
0x24044a24  0x4        huart1.AdvancedInit.AdvFeatureInit       uint32_t
0x24044a28  0x4        huart1.AdvancedInit.TxPinLevelInvert     uint32_t
0x24044a2c  0x4        huart1.AdvancedInit.RxPinLevelInvert     uint32_t
0x24044a30  0x4        huart1.AdvancedInit.DataInvert           uint32_t
0x24044a34  0x4        huart1.AdvancedInit.Swap                 uint32_t
0x24044a38  0x4        huart1.AdvancedInit.OverrunDisable       uint32_t
0x24044a3c  0x4        huart1.AdvancedInit.DMADisableonRxError  uint32_t
0x24044a40  0x4        huart1.AdvancedInit.AutoBaudRateEnable   uint32_t
0x24044a44  0x4        huart1.AdvancedInit.AutoBaudRateMode     uint32_t
0x24044a48  0x4        huart1.AdvancedInit.MSBFirst             uint32_t
0x24044a4c  0x4        huart1.pTxBuffPtr                        pointer to const uint8_t
0x24044a50  0x2        huart1.TxXferSize                        uint16_t
0x24044a52  0x2        huart1.TxXferCount                       volatile uint16_t
0x24044a54  0x4        huart1.pRxBuffPtr                        pointer to uint8_t
0x24044a58  0x2        huart1.RxXferSize                        uint16_t
0x24044a5a  0x2        huart1.RxXferCount                       volatile uint16_t
0x24044a5c  0x2      * huart1.Mask                              uint16_t
0x24044a60  0x4        huart1.FifoMode                          uint32_t
0x24044a64  0x2        huart1.NbRxDataToProcess                 uint16_t
0x24044a66  0x2        huart1.NbTxDataToProcess                 uint16_t
0x24044a68  0x4        huart1.ReceptionType                     volatile HAL_UART_RxTypeTypeDef
0x24044a6c  0x4        huart1.RxISR                             pointer to function 
0x24044a70  0x4        huart1.TxISR                             pointer to function 
0x24044a74  0x4        huart1.hdmatx                            pointer to DMA_HandleTypeDef
0x24044a78  0x4        huart1.hdmarx                            pointer to DMA_HandleTypeDef
0x24044a7c  0x1      * huart1.Lock                              HAL_LockTypeDef
0x24044a80  0x4        huart1.gState                            volatile HAL_UART_StateTypeDef
0x24044a84  0x4        huart1.RxState                           volatile HAL_UART_StateTypeDef
0x24044a88  0x4        huart1.ErrorCode                         volatile uint32_t

address     size       variable name                            type
0x240449b0  0x4c       htim6                                    TIM_HandleTypeDef
0x240449b0  0x4        htim6.Instance                           pointer to TIM_TypeDef
0x240449b4  0x18       htim6.Init                               TIM_Base_InitTypeDef
0x240449b4  0x4        htim6.Init.Prescaler                     uint32_t
0x240449b8  0x4        htim6.Init.CounterMode                   uint32_t
0x240449bc  0x4        htim6.Init.Period                        uint32_t
0x240449c0  0x4        htim6.Init.ClockDivision                 uint32_t
0x240449c4  0x4        htim6.Init.RepetitionCounter             uint32_t
0x240449c8  0x4        htim6.Init.AutoReloadPreload             uint32_t
0x240449cc  0x1      * htim6.Channel                            HAL_TIM_ActiveChannel
0x240449d0  0x1c       htim6.hdma                               array[7] of pointer to DMA_HandleTypeDef
0x240449ec  0x1        htim6.Lock                               HAL_LockTypeDef
0x240449ed  0x1        htim6.State                              volatile HAL_TIM_StateTypeDef
0x240449ee  0x6        htim6.ChannelState                       array[6] of volatile HAL_TIM_ChannelStateTypeDef
0x240449f4  0x4        htim6.ChannelNState                      array[4] of volatile HAL_TIM_ChannelStateTypeDef
0x240449f8  0x1        htim6.DMABurstState                      volatile HAL_TIM_DMABurstStateTypeDef

address     size       variable name                            type
0x24044958  0x54       __stdout                                 FILE
0x24044958  0x54       __stdout.__FILE_opaque                   anonymous
0x24044958  0x4        __stdout.__FILE_opaque.__FILE_alignment  long int
0x24044958  0x54       __stdout.__FILE_opaque.__FILE_size       array[84] of char

address     size       variable name                            type
0x240449ac  0x2        cont1                                    uint16_t

